

HI-TECH Software PIC LITE Macro Assembler V9.83 build 10920 
                                                                                               Tue Sep 11 19:51:55 2012

HI-TECH Software Omniscient Code Generator (Lite mode) build 10920
     1  0000                     opt subtitle "HI-TECH Software Omniscient Code Generator (Lite mode) build 10920"
     2                           
     3                           opt pagewidth 120
     4                           
     5                           	opt lm
     6                           
     7                           	processor	16F688
     8                           clrc	macro
     9                           	bcf	3,0
    10  0000                     	endm
    11                           clrz	macro
    12                           	bcf	3,2
    13  0000                     	endm
    14                           setc	macro
    15                           	bsf	3,0
    16  0000                     	endm
    17                           setz	macro
    18                           	bsf	3,2
    19  0000                     	endm
    20                           skipc	macro
    21                           	btfss	3,0
    22  0000                     	endm
    23                           skipz	macro
    24                           	btfss	3,2
    25  0000                     	endm
    26                           skipnc	macro
    27                           	btfsc	3,0
    28  0000                     	endm
    29                           skipnz	macro
    30                           	btfsc	3,2
    31  0000                     	endm
    32  0000                     indf	equ	0
    33  0000                     indf0	equ	0
    34  0002                     pc	equ	2
    35  0002                     pcl	equ	2
    36  0003                     status	equ	3
    37  0004                     fsr	equ	4
    38  0004                     fsr0	equ	4
    39  0001                     c	equ	1
    40  0000                     z	equ	0
    41  000A                     pclath	equ	10
    42                           # 5 "E:\Dropbox\socialAnalizer\Firmware\V0.23s\main.c"
    43                           	psect config,class=CONFIG,delta=2 ;#
    44                           # 5 "E:\Dropbox\socialAnalizer\Firmware\V0.23s\main.c"
    45  2007  FCE4               	dw 0xFFFF & 0xFFFF & 0xFFFF & 0xFFEF & 0xFFF7 & 0xFFFC & 0xFCFF ;#
    46                           	FNCALL	_main,_initPIC
    47                           	FNCALL	_main,_measure
    48                           	FNCALL	_main,_sleep
    49                           	FNCALL	_main,_wake
    50                           	FNCALL	_measure,_ADC
    51                           	FNCALL	_measure,_promilage
    52                           	FNCALL	_measure,_send
    53                           	FNCALL	_measure,_battery
    54                           	FNCALL	_battery,_ADC
    55                           	FNCALL	_battery,_send
    56                           	FNCALL	_promilage,___lwdiv
    57                           	FNROOT	_main
    58                           	FNCALL	_isr,_printf
    59                           	FNCALL	_printf,_putch
    60                           	FNCALL	intlevel1,_isr
    61                           	global	intlevel1
    62                           	FNROOT	intlevel1
    63                           	global	_heat
    64                           	global	_heat_ref
    65                           	global	_on
    66                           	global	_sw
    67                           	global	_ADCON0
    68                           psect	text337,local,class=CODE,delta=2
    69                           global __ptext337
    70  0000                     __ptext337:
    71  001F                     _ADCON0	set	31
    72                           	global	_ADCON0bits
    73  001F                     _ADCON0bits	set	31
    74                           	global	_ADRESH
    75  001E                     _ADRESH	set	30
    76                           	global	_BAUDCTL
    77  0011                     _BAUDCTL	set	17
    78                           	global	_CMCON0
    79  0019                     _CMCON0	set	25
    80                           	global	_INTCON
    81  000B                     _INTCON	set	11
    82                           	global	_INTCONbits
    83  000B                     _INTCONbits	set	11
    84                           	global	_PORTA
    85  0005                     _PORTA	set	5
    86                           	global	_PORTC
    87  0007                     _PORTC	set	7
    88                           	global	_RCSTA
    89  0017                     _RCSTA	set	23
    90                           	global	_RCSTAbits
    91  0017                     _RCSTAbits	set	23
    92                           	global	_SPBRG
    93  0013                     _SPBRG	set	19
    94                           	global	_TMR0
    95  0001                     _TMR0	set	1
    96                           	global	_TXREG
    97  0015                     _TXREG	set	21
    98                           	global	_TXSTA
    99  0016                     _TXSTA	set	22
   100                           	global	_TXSTAbits
   101  0016                     _TXSTAbits	set	22
   102                           	global	_CARRY
   103  0018                     _CARRY	set	24
   104                           	global	_GIE
   105  005F                     _GIE	set	95
   106                           	global	_RA0
   107  0028                     _RA0	set	40
   108                           	global	_RA2
   109  002A                     _RA2	set	42
   110                           	global	_RA4
   111  002C                     _RA4	set	44
   112                           	global	_RA5
   113  002D                     _RA5	set	45
   114                           	global	_RC0
   115  0038                     _RC0	set	56
   116                           	global	_RC3
   117  003B                     _RC3	set	59
   118                           	global	_TXIF
   119  0061                     _TXIF	set	97
   120                           	global	_ADCON1
   121  009F                     _ADCON1	set	159
   122                           	global	_ADRESL
   123  009E                     _ADRESL	set	158
   124                           	global	_ANSEL
   125  0091                     _ANSEL	set	145
   126                           	global	_EEADR
   127  009B                     _EEADR	set	155
   128                           	global	_EECON1
   129  009C                     _EECON1	set	156
   130                           	global	_EECON1bits
   131  009C                     _EECON1bits	set	156
   132                           	global	_EECON2
   133  009D                     _EECON2	set	157
   134                           	global	_EEDAT
   135  009A                     _EEDAT	set	154
   136                           	global	_EEDATA
   137  009A                     _EEDATA	set	154
   138                           	global	_OPTION_REG
   139  0081                     _OPTION_REG	set	129
   140                           	global	_OSCCON
   141  008F                     _OSCCON	set	143
   142                           	global	_TRISA
   143  0085                     _TRISA	set	133
   144                           	global	_TRISC
   145  0087                     _TRISC	set	135
   146                           	global	_WPUAbits
   147  0095                     _WPUAbits	set	149
   148                           	global	_RD
   149  04E0                     _RD	set	1248
   150                           	global	_WR
   151  04E1                     _WR	set	1249
   152                           	global	_WREN
   153  04E2                     _WREN	set	1250
   154                           psect	strings,class=STRING,delta=2
   155                           global __pstrings
   156  0400                     __pstrings:
   157                           ;	global	stringdir,stringtab,__stringbase
   158  0400                     stringtab:
   159                           ;	String table - string pointers are 1 byte each
   160  0400                     stringcode:stringdir:
      + 0400                     stringdir:	
   161  0400  3004               movlw high(stringdir)
   162  0401  008A               movwf pclath
   163  0402  0804               movf fsr,w
   164  0403  0A84               incf fsr
   165  0404  0782               	addwf pc
   166  0405                     __stringbase:
   167  0405  3400               	retlw	0
   168                           psect	strings
   169                           	
   170  0406                     STR_2:	
   171  0406  3452               	retlw	82	;'R'
   172  0407  3465               	retlw	101	;'e'
   173  0408  3473               	retlw	115	;'s'
   174  0409  3465               	retlw	101	;'e'
   175  040A  3474               	retlw	116	;'t'
   176  040B  3474               	retlw	116	;'t'
   177  040C  3469               	retlw	105	;'i'
   178  040D  346E               	retlw	110	;'n'
   179  040E  3467               	retlw	103	;'g'
   180  040F  3420               	retlw	32	;' '
   181  0410  3464               	retlw	100	;'d'
   182  0411  3465               	retlw	101	;'e'
   183  0412  3476               	retlw	118	;'v'
   184  0413  3469               	retlw	105	;'i'
   185  0414  3463               	retlw	99	;'c'
   186  0415  3465               	retlw	101	;'e'
   187  0416  3421               	retlw	33	;'!'
   188  0417  3420               	retlw	32	;' '
   189  0418  3450               	retlw	80	;'P'
   190  0419  346C               	retlw	108	;'l'
   191  041A  3465               	retlw	101	;'e'
   192  041B  3461               	retlw	97	;'a'
   193  041C  3473               	retlw	115	;'s'
   194  041D  3465               	retlw	101	;'e'
   195  041E  3420               	retlw	32	;' '
   196  041F  3477               	retlw	119	;'w'
   197  0420  3461               	retlw	97	;'a'
   198  0421  3469               	retlw	105	;'i'
   199  0422  3474               	retlw	116	;'t'
   200  0423  342E               	retlw	46	;'.'
   201  0424  342E               	retlw	46	;'.'
   202  0425  342E               	retlw	46	;'.'
   203  0426  340A               	retlw	10
   204  0427  3400               	retlw	0
   205                           psect	strings
   206                           	
   207  0428                     STR_1:	
   208  0428  3453               	retlw	83	;'S'
   209  0429  346F               	retlw	111	;'o'
   210  042A  3466               	retlw	102	;'f'
   211  042B  3474               	retlw	116	;'t'
   212  042C  3477               	retlw	119	;'w'
   213  042D  3461               	retlw	97	;'a'
   214  042E  3472               	retlw	114	;'r'
   215  042F  3465               	retlw	101	;'e'
   216  0430  3420               	retlw	32	;' '
   217  0431  3472               	retlw	114	;'r'
   218  0432  3465               	retlw	101	;'e'
   219  0433  3476               	retlw	118	;'v'
   220  0434  3469               	retlw	105	;'i'
   221  0435  3473               	retlw	115	;'s'
   222  0436  3469               	retlw	105	;'i'
   223  0437  346F               	retlw	111	;'o'
   224  0438  346E               	retlw	110	;'n'
   225  0439  343A               	retlw	58	;':'
   226  043A  3420               	retlw	32	;' '
   227  043B  3430               	retlw	48	;'0'
   228  043C  342E               	retlw	46	;'.'
   229  043D  3432               	retlw	50	;'2'
   230  043E  3433               	retlw	51	;'3'
   231  043F  340A               	retlw	10
   232  0440  3400               	retlw	0
   233                           psect	strings
   234                           	
   235  0441                     STR_4:	
   236  0441  3441               	retlw	65	;'A'
   237  0442  3454               	retlw	84	;'T'
   238  0443  342B               	retlw	43	;'+'
   239  0444  344E               	retlw	78	;'N'
   240  0445  3441               	retlw	65	;'A'
   241  0446  344D               	retlw	77	;'M'
   242  0447  3445               	retlw	69	;'E'
   243  0448  3473               	retlw	115	;'s'
   244  0449  346F               	retlw	111	;'o'
   245  044A  3463               	retlw	99	;'c'
   246  044B  3469               	retlw	105	;'i'
   247  044C  3461               	retlw	97	;'a'
   248  044D  346C               	retlw	108	;'l'
   249  044E  3461               	retlw	97	;'a'
   250  044F  346E               	retlw	110	;'n'
   251  0450  3461               	retlw	97	;'a'
   252  0451  346C               	retlw	108	;'l'
   253  0452  3479               	retlw	121	;'y'
   254  0453  347A               	retlw	122	;'z'
   255  0454  3465               	retlw	101	;'e'
   256  0455  3472               	retlw	114	;'r'
   257  0456  3400               	retlw	0
   258                           psect	strings
   259                           	
   260  0457                     STR_3:	
   261  0457  3441               	retlw	65	;'A'
   262  0458  3454               	retlw	84	;'T'
   263  0459  342B               	retlw	43	;'+'
   264  045A  3452               	retlw	82	;'R'
   265  045B  3445               	retlw	69	;'E'
   266  045C  3453               	retlw	83	;'S'
   267  045D  3445               	retlw	69	;'E'
   268  045E  3454               	retlw	84	;'T'
   269  045F  3400               	retlw	0
   270                           psect	strings
   271                           	file	"socialAnalizer.as"
   272                           	line	#
   273                           psect cinit,class=CODE,delta=2
   274                           global start_initialization
   275  05FB                     start_initialization:
   276                           
   277                           psect	bitbssCOMMON,class=COMMON,bit,space=1
   278                           global __pbitbssCOMMON
   279  03E0                     __pbitbssCOMMON:
   280  03E0                     _on:
   281  03E0                            ds      1
   282                           
   283                           psect	bssBANK0,class=BANK0,space=1
   284                           global __pbssBANK0
   285  003F                     __pbssBANK0:
   286  003F                     _heat:
   287  003F                            ds      1
   288                           
   289  0040                     _heat_ref:
   290  0040                            ds      1
   291                           
   292                           psect	bssBANK1,class=BANK1,space=1
   293                           global __pbssBANK1
   294  00E8                     __pbssBANK1:
   295  00E8                     _sw:
   296  00E8                            ds      1
   297                           
   298                           ; Clear objects allocated to BITCOMMON
   299                           psect cinit,class=CODE,delta=2
   300  05FB  01FC               	clrf	((__pbitbssCOMMON/8)+0)&07Fh
   301                           ; Clear objects allocated to BANK0
   302                           psect cinit,class=CODE,delta=2
   303  05FC  01BF               	clrf	((__pbssBANK0)+0)&07Fh
   304  05FD  01C0               	clrf	((__pbssBANK0)+1)&07Fh
   305                           ; Clear objects allocated to BANK1
   306                           psect cinit,class=CODE,delta=2
   307  05FE  1683               	bsf	status, 5	;RP0=1, select bank1
   308  05FF  1303               	bcf	status, 6	;RP1=0, select bank1
   309  0600  01E8               	clrf	((__pbssBANK1)+0)&07Fh
   310                           psect cinit,class=CODE,delta=2
   311                           global end_of_initialization
   312                           
   313                           ;End of C runtime variable initialization code
   314                           
   315  0601                     end_of_initialization:
   316  0601  0183               clrf status
   317  0602  118A  2D66         ljmp _main	;jump to C main() function
   318                           psect	cstackBANK1,class=BANK1,space=1
   319                           global __pcstackBANK1
   320  00A0                     __pcstackBANK1:
   321                           	global	measure@r
   322  00A0                     measure@r:	; 68 bytes @ 0x0
   323  00A0                     	ds	68
   324                           	global	measure@result
   325  00E4                     measure@result:	; 2 bytes @ 0x44
   326  00E4                     	ds	2
   327                           	global	measure@i
   328  00E6                     measure@i:	; 2 bytes @ 0x46
   329  00E6                     	ds	2
   330                           psect	cstackCOMMON,class=COMMON,space=1
   331                           global __pcstackCOMMON
   332  0070                     __pcstackCOMMON:
   333                           	global	?_initPIC
   334  0070                     ?_initPIC:	; 0 bytes @ 0x0
   335                           	global	?_measure
   336  0070                     ?_measure:	; 0 bytes @ 0x0
   337                           	global	?_sleep
   338  0070                     ?_sleep:	; 0 bytes @ 0x0
   339                           	global	?_wake
   340  0070                     ?_wake:	; 0 bytes @ 0x0
   341                           	global	?_send
   342  0070                     ?_send:	; 1 bit 
   343                           	global	?_battery
   344  0070                     ?_battery:	; 0 bytes @ 0x0
   345                           	global	?_main
   346  0070                     ?_main:	; 0 bytes @ 0x0
   347                           	global	?_isr
   348  0070                     ?_isr:	; 0 bytes @ 0x0
   349                           	global	?_putch
   350  0070                     ?_putch:	; 0 bytes @ 0x0
   351                           	global	??_putch
   352  0070                     ??_putch:	; 0 bytes @ 0x0
   353                           	global	?_printf
   354  0070                     ?_printf:	; 2 bytes @ 0x0
   355                           	global	putch@byte
   356  0070                     putch@byte:	; 1 bytes @ 0x0
   357  0070                     	ds	1
   358                           	global	??_printf
   359  0071                     ??_printf:	; 0 bytes @ 0x1
   360  0071                     	ds	1
   361                           	global	printf@ap
   362  0072                     printf@ap:	; 1 bytes @ 0x2
   363  0072                     	ds	1
   364                           	global	printf@f
   365  0073                     printf@f:	; 1 bytes @ 0x3
   366  0073                     	ds	1
   367                           	global	printf@c
   368  0074                     printf@c:	; 1 bytes @ 0x4
   369  0074                     	ds	1
   370                           	global	??_isr
   371  0075                     ??_isr:	; 0 bytes @ 0x5
   372  0075                     	ds	7
   373                           psect	cstackBANK0,class=BANK0,space=1
   374                           global __pcstackBANK0
   375  0020                     __pcstackBANK0:
   376                           	global	isr@count
   377  0020                     isr@count:	; 4 bytes @ 0x0
   378  0020                     	ds	4
   379                           	global	??_initPIC
   380  0024                     ??_initPIC:	; 0 bytes @ 0x4
   381                           	global	??_sleep
   382  0024                     ??_sleep:	; 0 bytes @ 0x4
   383                           	global	??_wake
   384  0024                     ??_wake:	; 0 bytes @ 0x4
   385                           	global	??_send
   386  0024                     ??_send:	; 0 bytes @ 0x4
   387                           	global	?_ADC
   388  0024                     ?_ADC:	; 2 bytes @ 0x4
   389                           	global	?___lwdiv
   390  0024                     ?___lwdiv:	; 2 bytes @ 0x4
   391                           	global	send@data
   392  0024                     send@data:	; 1 bytes @ 0x4
   393                           	global	___lwdiv@divisor
   394  0024                     ___lwdiv@divisor:	; 2 bytes @ 0x4
   395  0024                     	ds	1
   396                           	global	send@i
   397  0025                     send@i:	; 2 bytes @ 0x5
   398  0025                     	ds	1
   399                           	global	??_ADC
   400  0026                     ??_ADC:	; 0 bytes @ 0x6
   401                           	global	___lwdiv@dividend
   402  0026                     ___lwdiv@dividend:	; 2 bytes @ 0x6
   403  0026                     	ds	1
   404                           	global	wake@i
   405  0027                     wake@i:	; 1 bytes @ 0x7
   406  0027                     	ds	1
   407                           	global	??___lwdiv
   408  0028                     ??___lwdiv:	; 0 bytes @ 0x8
   409  0028                     	ds	1
   410                           	global	___lwdiv@quotient
   411  0029                     ___lwdiv@quotient:	; 2 bytes @ 0x9
   412  0029                     	ds	1
   413                           	global	ADC@channel
   414  002A                     ADC@channel:	; 1 bytes @ 0xA
   415  002A                     	ds	1
   416                           	global	??_battery
   417  002B                     ??_battery:	; 0 bytes @ 0xB
   418                           	global	___lwdiv@counter
   419  002B                     ___lwdiv@counter:	; 1 bytes @ 0xB
   420  002B                     	ds	1
   421                           	global	?_promilage
   422  002C                     ?_promilage:	; 2 bytes @ 0xC
   423  002C                     	ds	2
   424                           	global	??_promilage
   425  002E                     ??_promilage:	; 0 bytes @ 0xE
   426                           	global	battery@t
   427  002E                     battery@t:	; 1 bytes @ 0xE
   428  002E                     	ds	1
   429                           	global	battery@r
   430  002F                     battery@r:	; 2 bytes @ 0xF
   431  002F                     	ds	5
   432                           	global	promilage@c
   433  0034                     promilage@c:	; 2 bytes @ 0x14
   434  0034                     	ds	2
   435                           	global	promilage@res2
   436  0036                     promilage@res2:	; 2 bytes @ 0x16
   437  0036                     	ds	2
   438                           	global	promilage@res1
   439  0038                     promilage@res1:	; 2 bytes @ 0x18
   440  0038                     	ds	2
   441                           	global	promilage@r
   442  003A                     promilage@r:	; 1 bytes @ 0x1A
   443  003A                     	ds	1
   444                           	global	promilage@i
   445  003B                     promilage@i:	; 2 bytes @ 0x1B
   446  003B                     	ds	2
   447                           	global	??_measure
   448  003D                     ??_measure:	; 0 bytes @ 0x1D
   449  003D                     	ds	2
   450                           	global	??_main
   451  003F                     ??_main:	; 0 bytes @ 0x1F
   452 ;;Data sizes: Strings 90, constant 0, data 0, bss 3, persistent 0 stack 0
   453 ;;Auto spaces:   Size  Autos    Used
   454 ;; COMMON          14     12      13
   455 ;; BANK0           80     31      33
   456 ;; BANK1           80     72      73
   457 ;; BANK2           80      0       0
   458                           
   459 ;;
   460 ;; Pointer list with targets:
   461                           
   462 ;; ?_ADC	int  size(1) Largest target is 0
   463 ;;
   464 ;; ?___lwdiv	unsigned int  size(1) Largest target is 0
   465 ;;
   466 ;; ?_promilage	unsigned int  size(1) Largest target is 0
   467 ;;
   468 ;; printf@f	PTR const unsigned char  size(1) Largest target is 34
   469 ;;		 -> STR_4(CODE[22]), STR_3(CODE[9]), STR_2(CODE[34]), STR_1(CODE[25]), 
   470 ;;
   471 ;; printf@ap	PTR void [1] size(1) Largest target is 2
   472 ;;		 -> ?_printf(COMMON[2]), 
   473 ;;
   474 ;; S1047$_cp	PTR const unsigned char  size(1) Largest target is 0
   475 ;;
   476 ;; _val._str._cp	PTR const unsigned char  size(1) Largest target is 0
   477 ;;
   478 ;; promilage@r	PTR unsigned int  size(1) Largest target is 68
   479 ;;		 -> measure@r(BANK1[68]), 
   480 ;;
   481                           
   482                           
   483 ;;
   484 ;; Critical Paths under _main in COMMON
   485 ;;
   486 ;;   None.
   487 ;;
   488 ;; Critical Paths under _isr in COMMON
   489 ;;
   490 ;;   _isr->_printf
   491 ;;   _printf->_putch
   492 ;;
   493 ;; Critical Paths under _main in BANK0
   494 ;;
   495 ;;   _main->_measure
   496 ;;   _measure->_promilage
   497 ;;   _battery->_ADC
   498 ;;   _promilage->___lwdiv
   499 ;;
   500 ;; Critical Paths under _isr in BANK0
   501 ;;
   502 ;;   None.
   503 ;;
   504 ;; Critical Paths under _main in BANK1
   505 ;;
   506 ;;   _main->_measure
   507 ;;
   508 ;; Critical Paths under _isr in BANK1
   509 ;;
   510 ;;   None.
   511 ;;
   512 ;; Critical Paths under _main in BANK2
   513 ;;
   514 ;;   None.
   515 ;;
   516 ;; Critical Paths under _isr in BANK2
   517 ;;
   518 ;;   None.
   519                           
   520 ;;
   521 ;;Main: autosize = 0, tempsize = 0, incstack = 0, save=0
   522 ;;
   523                           
   524 ;;
   525 ;;Call Graph Tables:
   526 ;;
   527 ;; ---------------------------------------------------------------------------------
   528 ;; (Depth) Function   	        Calls       Base Space   Used Autos Params    Refs
   529 ;; ---------------------------------------------------------------------------------
   530 ;; (0) _main                                                 0     0      0    1235
   531 ;;                            _initPIC
   532 ;;                            _measure
   533 ;;                              _sleep
   534 ;;                               _wake
   535 ;; ---------------------------------------------------------------------------------
   536 ;; (1) _measure                                             74    74      0    1189
   537 ;;                                             29 BANK0      2     2      0
   538 ;;                                              0 BANK1     72    72      0
   539 ;;                                _ADC
   540 ;;                          _promilage
   541 ;;                               _send
   542 ;;                            _battery
   543 ;; ---------------------------------------------------------------------------------
   544 ;; (2) _battery                                              6     6      0     298
   545 ;;                                             11 BANK0      6     6      0
   546 ;;                                _ADC
   547 ;;                               _send
   548 ;; ---------------------------------------------------------------------------------
   549 ;; (2) _promilage                                           17    15      2     570
   550 ;;                                             12 BANK0     17    15      2
   551 ;;                            ___lwdiv
   552 ;; ---------------------------------------------------------------------------------
   553 ;; (3) _ADC                                                  7     5      2      22
   554 ;;                                              4 BANK0      7     5      2
   555 ;; ---------------------------------------------------------------------------------
   556 ;; (1) _wake                                                 4     4      0      46
   557 ;;                                              4 BANK0      4     4      0
   558 ;; ---------------------------------------------------------------------------------
   559 ;; (1) _sleep                                                0     0      0       0
   560 ;; ---------------------------------------------------------------------------------
   561 ;; (1) _initPIC                                              3     3      0       0
   562 ;;                                              4 BANK0      3     3      0
   563 ;; ---------------------------------------------------------------------------------
   564 ;; (3) ___lwdiv                                              8     4      4     162
   565 ;;                                              4 BANK0      8     4      4
   566 ;; ---------------------------------------------------------------------------------
   567 ;; (3) _send                                                 3     3      0      46
   568 ;;                                              4 BANK0      3     3      0
   569 ;; ---------------------------------------------------------------------------------
   570 ;; Estimated maximum stack depth 3
   571 ;; ---------------------------------------------------------------------------------
   572 ;; (Depth) Function   	        Calls       Base Space   Used Autos Params    Refs
   573 ;; ---------------------------------------------------------------------------------
   574 ;; (4) _isr                                                 11    11      0     136
   575 ;;                                              5 COMMON     7     7      0
   576 ;;                                              0 BANK0      4     4      0
   577 ;;                             _printf
   578 ;; ---------------------------------------------------------------------------------
   579 ;; (5) _printf                                              10    10      0      68
   580 ;;                                              1 COMMON     4     4      0
   581 ;;                              _putch
   582 ;; ---------------------------------------------------------------------------------
   583 ;; (6) _putch                                                1     1      0      22
   584 ;;                                              0 COMMON     1     1      0
   585 ;; ---------------------------------------------------------------------------------
   586 ;; Estimated maximum stack depth 6
   587 ;; ---------------------------------------------------------------------------------
   588                           
   589 ;; Call Graph Graphs:
   590                           
   591 ;; _main (ROOT)
   592 ;;   _initPIC
   593 ;;   _measure
   594 ;;     _ADC
   595 ;;     _promilage
   596 ;;       ___lwdiv
   597 ;;     _send
   598 ;;     _battery
   599 ;;       _ADC
   600 ;;       _send
   601 ;;   _sleep
   602 ;;   _wake
   603 ;;
   604 ;; _isr (ROOT)
   605 ;;   _printf
   606 ;;     _putch
   607 ;;
   608                           
   609 ;; Address spaces:
   610                           
   611 ;;Name               Size   Autos  Total    Cost      Usage
   612 ;;BITCOMMON            E      0       1       0        7.1%
   613 ;;EEDATA             100      0       0       0        0.0%
   614 ;;NULL                 0      0       0       0        0.0%
   615 ;;CODE                 0      0       0       0        0.0%
   616 ;;COMMON               E      C       D       1       92.9%
   617 ;;BITSFR0              0      0       0       1        0.0%
   618 ;;SFR0                 0      0       0       1        0.0%
   619 ;;BITSFR1              0      0       0       2        0.0%
   620 ;;SFR1                 0      0       0       2        0.0%
   621 ;;STACK                0      0       9       2        0.0%
   622 ;;BANK0               50     1F      21       3       41.3%
   623 ;;BITBANK1            50      0       0       4        0.0%
   624 ;;BITSFR3              0      0       0       4        0.0%
   625 ;;SFR3                 0      0       0       4        0.0%
   626 ;;BANK1               50     48      49       5       91.3%
   627 ;;BITSFR2              0      0       0       5        0.0%
   628 ;;SFR2                 0      0       0       5        0.0%
   629 ;;BITBANK2            50      0       0       6        0.0%
   630 ;;BANK2               50      0       0       7        0.0%
   631 ;;ABS                  0      0      77       8        0.0%
   632 ;;BITBANK0            50      0       0       9        0.0%
   633 ;;DATA                 0      0      80      10        0.0%
   634                           
   635                           	global	_main
   636                           psect	maintext,global,class=CODE,delta=2
   637                           global __pmaintext
   638  0566                     __pmaintext:
   639                           
   640 ;; *************** function _main *****************
   641 ;; Defined at:
   642 ;;		line 50 in file "E:\Dropbox\socialAnalizer\Firmware\V0.23s\main.c"
   643 ;; Parameters:    Size  Location     Type
   644 ;;		None
   645 ;; Auto vars:     Size  Location     Type
   646 ;;		None
   647 ;; Return value:  Size  Location     Type
   648 ;;		None               void
   649 ;; Registers used:
   650 ;;		wreg, fsr0l, fsr0h, status,2, status,0, btemp+1, pclath, cstack
   651 ;; Tracked objects:
   652 ;;		On entry : 17F/0
   653 ;;		On exit  : 0/0
   654 ;;		Unchanged: 0/0
   655 ;; Data sizes:     COMMON   BANK0   BANK1   BANK2
   656 ;;      Params:         0       0       0       0
   657 ;;      Locals:         0       0       0       0
   658 ;;      Temps:          0       0       0       0
   659 ;;      Totals:         0       0       0       0
   660 ;;Total ram usage:        0 bytes
   661 ;; Hardware stack levels required when called:    6
   662 ;; This function calls:
   663 ;;		_initPIC
   664 ;;		_measure
   665 ;;		_sleep
   666 ;;		_wake
   667 ;; This function is called by:
   668 ;;		Startup code after reset
   669 ;; This function uses a non-reentrant model
   670 ;;
   671                           psect	maintext
   672                           	file	"E:\Dropbox\socialAnalizer\Firmware\V0.23s\main.c"
   673                           	line	50
   674                           	global	__size_of_main
   675  002E                     	__size_of_main	equ	__end_of_main-_main
   676                           	
   677  0566                     _main:	
   678                           	opt	stack 2
   679                           ; Regs used in _main: [wreg-fsr0h+status,2+status,0+btemp+1+pclath+cstack]
   680                           	line	51
   681                           	
   682  0566                     l3245:	
   683                           ;main.c: 51: initPIC();
   684  0566  118A  24F4  118A   	fcall	_initPIC
   685  0569  2D6A               	goto	l3247
   686                           	line	53
   687                           ;main.c: 53: while(1)
   688                           	
   689  056A                     l555:	
   690                           	line	55
   691                           	
   692  056A                     l3247:	
   693                           ;main.c: 54: {
   694                           ;main.c: 55: if(sw==1)
   695  056A  1683               	bsf	status, 5	;RP0=1, select bank1
   696  056B  1303               	bcf	status, 6	;RP1=0, select bank1
   697  056C  0868               	movf	(_sw)^080h,w
   698  056D  3A01               	xorlw	01h
   699  056E  1D03               	skipz
   700  056F  2D71               	goto	u3271
   701  0570  2D72               	goto	u3270
   702  0571                     u3271:
   703  0571  2D76               	goto	l3251
   704  0572                     u3270:
   705                           	line	56
   706                           	
   707  0572                     l3249:	
   708                           ;main.c: 56: measure();
   709  0572  118A  222B  118A   	fcall	_measure
   710  0575  2D82               	goto	l3255
   711                           	line	57
   712                           	
   713  0576                     l556:	
   714                           	
   715  0576                     l3251:	
   716                           ;main.c: 57: else if(sw==0)
   717  0576  1683               	bsf	status, 5	;RP0=1, select bank1
   718  0577  1303               	bcf	status, 6	;RP1=0, select bank1
   719  0578  08E8               	movf	(_sw)^080h,f
   720  0579  1D03               	skipz
   721  057A  2D7C               	goto	u3281
   722  057B  2D7D               	goto	u3280
   723  057C                     u3281:
   724  057C  2D82               	goto	l3255
   725  057D                     u3280:
   726                           	line	58
   727                           	
   728  057D                     l3253:	
   729                           ;main.c: 58: sleep();
   730  057D  118A  25D3  118A   	fcall	_sleep
   731  0580  2D82               	goto	l3255
   732                           	
   733  0581                     l558:	
   734  0581  2D82               	goto	l3255
   735                           	line	59
   736                           	
   737  0582                     l557:	
   738                           	
   739  0582                     l3255:	
   740                           ;main.c: 59: if(on==0&&sw!=0)
   741  0582  187C               	btfsc	(_on/8),(_on)&7
   742  0583  2D85               	goto	u3291
   743  0584  2D86               	goto	u3290
   744  0585                     u3291:
   745  0585  2D6A               	goto	l3247
   746  0586                     u3290:
   747                           	
   748  0586                     l3257:	
   749  0586  1683               	bsf	status, 5	;RP0=1, select bank1
   750  0587  1303               	bcf	status, 6	;RP1=0, select bank1
   751  0588  0868               	movf	(_sw)^080h,w
   752  0589  1D03               	skipz
   753  058A  2D8C               	goto	u3300
   754  058B  2D6A               	goto	l3247
   755  058C                     u3300:
   756                           	line	60
   757                           	
   758  058C                     l3259:	
   759                           ;main.c: 60: wake();
   760  058C  118A  24B0  118A   	fcall	_wake
   761  058F  2D6A               	goto	l3247
   762                           	
   763  0590                     l559:	
   764  0590  2D6A               	goto	l3247
   765                           	line	61
   766                           	
   767  0591                     l560:	
   768                           	line	53
   769  0591  2D6A               	goto	l3247
   770                           	
   771  0592                     l561:	
   772                           	line	62
   773                           	
   774  0592                     l562:	
   775                           	global	start
   776  0592  118A  2811         	ljmp	start
   777                           	opt stack 0
   778                           GLOBAL	__end_of_main
   779  0594                     	__end_of_main:
   780 ;; =============== function _main ends ============
   781                           
   782                           	signat	_main,88
   783                           	global	_measure
   784                           psect	text338,local,class=CODE,delta=2
   785                           global __ptext338
   786  022B                     __ptext338:
   787                           
   788 ;; *************** function _measure *****************
   789 ;; Defined at:
   790 ;;		line 210 in file "E:\Dropbox\socialAnalizer\Firmware\V0.23s\main.c"
   791 ;; Parameters:    Size  Location     Type
   792 ;;		None
   793 ;; Auto vars:     Size  Location     Type
   794 ;;  r              68    0[BANK1 ] unsigned int [34]
   795 ;;  i               2   70[BANK1 ] unsigned int 
   796 ;;  result          2   68[BANK1 ] unsigned int 
   797 ;; Return value:  Size  Location     Type
   798 ;;		None               void
   799 ;; Registers used:
   800 ;;		wreg, fsr0l, fsr0h, status,2, status,0, btemp+1, pclath, cstack
   801 ;; Tracked objects:
   802 ;;		On entry : 0/0
   803 ;;		On exit  : 0/0
   804 ;;		Unchanged: 0/0
   805 ;; Data sizes:     COMMON   BANK0   BANK1   BANK2
   806 ;;      Params:         0       0       0       0
   807 ;;      Locals:         0       0      72       0
   808 ;;      Temps:          0       2       0       0
   809 ;;      Totals:         0       2      72       0
   810 ;;Total ram usage:       74 bytes
   811 ;; Hardware stack levels used:    1
   812 ;; Hardware stack levels required when called:    5
   813 ;; This function calls:
   814 ;;		_ADC
   815 ;;		_promilage
   816 ;;		_send
   817 ;;		_battery
   818 ;; This function is called by:
   819 ;;		_main
   820 ;; This function uses a non-reentrant model
   821 ;;
   822                           psect	text338
   823                           	file	"E:\Dropbox\socialAnalizer\Firmware\V0.23s\main.c"
   824                           	line	210
   825                           	global	__size_of_measure
   826  00EE                     	__size_of_measure	equ	__end_of_measure-_measure
   827                           	
   828  022B                     _measure:	
   829                           	opt	stack 2
   830                           ; Regs used in _measure: [wreg-fsr0h+status,2+status,0+btemp+1+pclath+cstack]
   831                           	line	211
   832                           	
   833  022B                     l3187:	
   834                           ;main.c: 211: heat=12;
   835  022B  300C               	movlw	(0Ch)
   836  022C  1283               	bcf	status, 5	;RP0=0, select bank0
   837  022D  1303               	bcf	status, 6	;RP1=0, select bank0
   838  022E  00BD               	movwf	(??_measure+0)+0
   839  022F  083D               	movf	(??_measure+0)+0,w
   840  0230  00BF               	movwf	(_heat)
   841                           	line	213
   842                           	
   843  0231                     l3189:	
   844                           ;main.c: 212: unsigned int r[34],i,result;
   845                           ;main.c: 213: for(i=0;i<20;i++)
   846  0231  1683               	bsf	status, 5	;RP0=1, select bank1
   847  0232  1303               	bcf	status, 6	;RP1=0, select bank1
   848  0233  01E6               	clrf	(measure@i)^080h
   849  0234  01E7               	clrf	(measure@i+1)^080h
   850                           	
   851  0235                     l3191:	
   852  0235  3000               	movlw	high(014h)
   853  0236  0267               	subwf	(measure@i+1)^080h,w
   854  0237  3014               	movlw	low(014h)
   855  0238  1903               	skipnz
   856  0239  0266               	subwf	(measure@i)^080h,w
   857  023A  1C03               	skipc
   858  023B  2A3D               	goto	u3211
   859  023C  2A3E               	goto	u3210
   860  023D                     u3211:
   861  023D  2A40               	goto	l593
   862  023E                     u3210:
   863  023E  2A6A               	goto	l3207
   864                           	
   865  023F                     l3193:	
   866  023F  2A6A               	goto	l3207
   867                           	line	214
   868                           	
   869  0240                     l593:	
   870                           	line	215
   871                           ;main.c: 214: {
   872                           ;main.c: 215: RC3=1;
   873  0240  1283               	bcf	status, 5	;RP0=0, select bank0
   874  0241  1303               	bcf	status, 6	;RP1=0, select bank0
   875  0242  1587               	bsf	(59/8),(59)&7
   876                           	line	216
   877                           ;main.c: 216: INTCONbits.T0IE=0;
   878  0243  128B               	bcf	(11),5	;volatile
   879                           	line	217
   880                           	
   881  0244                     l3195:	
   882                           ;main.c: 217: ADC(6);
   883  0244  3006               	movlw	(06h)
   884  0245  118A  2530  118A   	fcall	_ADC
   885                           	line	218
   886                           	
   887  0248                     l3197:	
   888                           ;main.c: 218: INTCONbits.T0IE=1;
   889  0248  168B               	bsf	(11),5	;volatile
   890                           	line	219
   891                           	
   892  0249                     l3199:	
   893                           ;main.c: 219: _delay(2000000/15);
   894                           	opt asmopt_off
   895  0249  30AE               movlw	174
   896  024A  1283               	bcf	status, 5	;RP0=0, select bank0
   897  024B  1303               	bcf	status, 6	;RP1=0, select bank0
   898  024C  00BE               movwf	((??_measure+0)+0+1),f
   899  024D  3027               	movlw	39
   900  024E  00BD               movwf	((??_measure+0)+0),f
   901  024F                     u3317:
   902  024F  0BBD               	decfsz	((??_measure+0)+0),f
   903  0250  2A4F               	goto	u3317
   904  0251  0BBE               	decfsz	((??_measure+0)+0+1),f
   905  0252  2A4F               	goto	u3317
   906  0253  0064               	clrwdt
   907                           opt asmopt_on
   908                           
   909                           	line	220
   910                           	
   911  0254                     l3201:	
   912                           ;main.c: 220: RC0=RC0^1;
   913  0254  3001               	movlw	1<<((56)&7)
   914  0255  1283               	bcf	status, 5	;RP0=0, select bank0
   915  0256  1303               	bcf	status, 6	;RP1=0, select bank0
   916  0257  0687               	xorwf	((56)/8),f
   917                           	line	213
   918                           	
   919  0258                     l3203:	
   920  0258  3001               	movlw	low(01h)
   921  0259  1683               	bsf	status, 5	;RP0=1, select bank1
   922  025A  1303               	bcf	status, 6	;RP1=0, select bank1
   923  025B  07E6               	addwf	(measure@i)^080h,f
   924  025C  1803               	skipnc
   925  025D  0AE7               	incf	(measure@i+1)^080h,f
   926  025E  3000               	movlw	high(01h)
   927  025F  07E7               	addwf	(measure@i+1)^080h,f
   928                           	
   929  0260                     l3205:	
   930  0260  3000               	movlw	high(014h)
   931  0261  0267               	subwf	(measure@i+1)^080h,w
   932  0262  3014               	movlw	low(014h)
   933  0263  1903               	skipnz
   934  0264  0266               	subwf	(measure@i)^080h,w
   935  0265  1C03               	skipc
   936  0266  2A68               	goto	u3221
   937  0267  2A69               	goto	u3220
   938  0268                     u3221:
   939  0268  2A40               	goto	l593
   940  0269                     u3220:
   941  0269  2A6A               	goto	l3207
   942                           	
   943  026A                     l594:	
   944                           	line	222
   945                           	
   946  026A                     l3207:	
   947                           ;main.c: 221: }
   948                           ;main.c: 222: for(i=0;i<34;i++)
   949  026A  01E6               	clrf	(measure@i)^080h
   950  026B  01E7               	clrf	(measure@i+1)^080h
   951                           	
   952  026C                     l3209:	
   953  026C  3000               	movlw	high(022h)
   954  026D  0267               	subwf	(measure@i+1)^080h,w
   955  026E  3022               	movlw	low(022h)
   956  026F  1903               	skipnz
   957  0270  0266               	subwf	(measure@i)^080h,w
   958  0271  1C03               	skipc
   959  0272  2A74               	goto	u3231
   960  0273  2A75               	goto	u3230
   961  0274                     u3231:
   962  0274  2A77               	goto	l595
   963  0275                     u3230:
   964  0275  2AAE               	goto	l3225
   965                           	
   966  0276                     l3211:	
   967  0276  2AAE               	goto	l3225
   968                           	line	223
   969                           	
   970  0277                     l595:	
   971                           	line	224
   972                           ;main.c: 223: {
   973                           ;main.c: 224: RC3=1;
   974  0277  1283               	bcf	status, 5	;RP0=0, select bank0
   975  0278  1303               	bcf	status, 6	;RP1=0, select bank0
   976  0279  1587               	bsf	(59/8),(59)&7
   977                           	line	225
   978                           ;main.c: 225: INTCONbits.T0IE=0;
   979  027A  128B               	bcf	(11),5	;volatile
   980                           	line	226
   981                           	
   982  027B                     l3213:	
   983                           ;main.c: 226: r[i]=ADC(6);
   984  027B  3006               	movlw	(06h)
   985  027C  118A  2530  118A   	fcall	_ADC
   986  027F  1683               	bsf	status, 5	;RP0=1, select bank1
   987  0280  1303               	bcf	status, 6	;RP1=0, select bank1
   988  0281  0866               	movf	(measure@i)^080h,w
   989  0282  1283               	bcf	status, 5	;RP0=0, select bank0
   990  0283  1303               	bcf	status, 6	;RP1=0, select bank0
   991  0284  00BD               	movwf	(??_measure+0)+0
   992  0285  073D               	addwf	(??_measure+0)+0,w
   993  0286  3EA0               	addlw	measure@r&0ffh
   994  0287  0084               	movwf	fsr0
   995  0288  0824               	movf	(0+(?_ADC)),w
   996  0289  1383               	bcf	status, 7	;select IRP bank1
   997  028A  0080               	movwf	indf
   998  028B  0A84               	incf	fsr0,f
   999  028C  0825               	movf	(1+(?_ADC)),w
  1000  028D  0080               	movwf	indf
  1001                           	line	227
  1002                           	
  1003  028E                     l3215:	
  1004                           ;main.c: 227: INTCONbits.T0IE=1;
  1005  028E  168B               	bsf	(11),5	;volatile
  1006                           	line	228
  1007                           	
  1008  028F                     l3217:	
  1009                           ;main.c: 228: _delay(2000000/15);
  1010                           	opt asmopt_off
  1011  028F  30AE               movlw	174
  1012  0290  00BE               movwf	((??_measure+0)+0+1),f
  1013  0291  3027               	movlw	39
  1014  0292  00BD               movwf	((??_measure+0)+0),f
  1015  0293                     u3327:
  1016  0293  0BBD               	decfsz	((??_measure+0)+0),f
  1017  0294  2A93               	goto	u3327
  1018  0295  0BBE               	decfsz	((??_measure+0)+0+1),f
  1019  0296  2A93               	goto	u3327
  1020  0297  0064               	clrwdt
  1021                           opt asmopt_on
  1022                           
  1023                           	line	229
  1024                           	
  1025  0298                     l3219:	
  1026                           ;main.c: 229: RC0=RC0^1;
  1027  0298  3001               	movlw	1<<((56)&7)
  1028  0299  1283               	bcf	status, 5	;RP0=0, select bank0
  1029  029A  1303               	bcf	status, 6	;RP1=0, select bank0
  1030  029B  0687               	xorwf	((56)/8),f
  1031                           	line	222
  1032                           	
  1033  029C                     l3221:	
  1034  029C  3001               	movlw	low(01h)
  1035  029D  1683               	bsf	status, 5	;RP0=1, select bank1
  1036  029E  1303               	bcf	status, 6	;RP1=0, select bank1
  1037  029F  07E6               	addwf	(measure@i)^080h,f
  1038  02A0  1803               	skipnc
  1039  02A1  0AE7               	incf	(measure@i+1)^080h,f
  1040  02A2  3000               	movlw	high(01h)
  1041  02A3  07E7               	addwf	(measure@i+1)^080h,f
  1042                           	
  1043  02A4                     l3223:	
  1044  02A4  3000               	movlw	high(022h)
  1045  02A5  0267               	subwf	(measure@i+1)^080h,w
  1046  02A6  3022               	movlw	low(022h)
  1047  02A7  1903               	skipnz
  1048  02A8  0266               	subwf	(measure@i)^080h,w
  1049  02A9  1C03               	skipc
  1050  02AA  2AAC               	goto	u3241
  1051  02AB  2AAD               	goto	u3240
  1052  02AC                     u3241:
  1053  02AC  2A77               	goto	l595
  1054  02AD                     u3240:
  1055  02AD  2AAE               	goto	l3225
  1056                           	
  1057  02AE                     l596:	
  1058                           	line	231
  1059                           	
  1060  02AE                     l3225:	
  1061                           ;main.c: 230: }
  1062                           ;main.c: 231: result=promilage(r);
  1063  02AE  30A0               	movlw	(measure@r)&0ffh
  1064  02AF  118A  2319  118A   	fcall	_promilage
  1065  02B2  1283               	bcf	status, 5	;RP0=0, select bank0
  1066  02B3  1303               	bcf	status, 6	;RP1=0, select bank0
  1067  02B4  082D               	movf	(1+(?_promilage)),w
  1068  02B5  1683               	bsf	status, 5	;RP0=1, select bank1
  1069  02B6  1303               	bcf	status, 6	;RP1=0, select bank1
  1070  02B7  01E5               	clrf	(measure@result+1)^080h
  1071  02B8  07E5               	addwf	(measure@result+1)^080h
  1072  02B9  1283               	bcf	status, 5	;RP0=0, select bank0
  1073  02BA  1303               	bcf	status, 6	;RP1=0, select bank0
  1074  02BB  082C               	movf	(0+(?_promilage)),w
  1075  02BC  1683               	bsf	status, 5	;RP0=1, select bank1
  1076  02BD  1303               	bcf	status, 6	;RP1=0, select bank1
  1077  02BE  01E4               	clrf	(measure@result)^080h
  1078  02BF  07E4               	addwf	(measure@result)^080h
  1079                           
  1080                           	line	235
  1081                           	
  1082  02C0                     l3227:	
  1083                           ;main.c: 235: send('A');
  1084  02C0  3041               	movlw	(041h)
  1085  02C1  118A  2594  118A   	fcall	_send
  1086                           	line	236
  1087                           	
  1088  02C4                     l3229:	
  1089                           ;main.c: 236: send((char) ((result&0xf000)>>12)+'0' );
  1090  02C4  1683               	bsf	status, 5	;RP0=1, select bank1
  1091  02C5  1303               	bcf	status, 6	;RP1=0, select bank1
  1092  02C6  0865               	movf	(measure@result+1)^080h,w
  1093  02C7  1283               	bcf	status, 5	;RP0=0, select bank0
  1094  02C8  1303               	bcf	status, 6	;RP1=0, select bank0
  1095  02C9  00BE               	movwf	(??_measure+0)+0+1
  1096  02CA  1683               	bsf	status, 5	;RP0=1, select bank1
  1097  02CB  1303               	bcf	status, 6	;RP1=0, select bank1
  1098  02CC  0864               	movf	(measure@result)^080h,w
  1099  02CD  1283               	bcf	status, 5	;RP0=0, select bank0
  1100  02CE  1303               	bcf	status, 6	;RP1=0, select bank0
  1101  02CF  00BD               	movwf	(??_measure+0)+0
  1102  02D0  300C               	movlw	0Ch
  1103  02D1                     u3255:
  1104  02D1  1003               	clrc
  1105  02D2  0CBE               	rrf	(??_measure+0)+1,f
  1106  02D3  0CBD               	rrf	(??_measure+0)+0,f
  1107  02D4  3EFF               	addlw	-1
  1108  02D5  1D03               	skipz
  1109  02D6  2AD1               	goto	u3255
  1110  02D7  083D               	movf	0+(??_measure+0)+0,w
  1111  02D8  390F               	andlw	0Fh
  1112  02D9  3E30               	addlw	030h
  1113  02DA  118A  2594  118A   	fcall	_send
  1114                           	line	237
  1115                           	
  1116  02DD                     l3231:	
  1117                           ;main.c: 237: send((char) ((result&0x0f00)>>8 )+'0' );
  1118  02DD  1683               	bsf	status, 5	;RP0=1, select bank1
  1119  02DE  1303               	bcf	status, 6	;RP1=0, select bank1
  1120  02DF  0865               	movf	(measure@result+1)^080h,w
  1121  02E0  390F               	andlw	0Fh
  1122  02E1  3E30               	addlw	030h
  1123  02E2  118A  2594  118A   	fcall	_send
  1124                           	line	238
  1125                           	
  1126  02E5                     l3233:	
  1127                           ;main.c: 238: send((char) ((result&0x00f0)>>4 )+'0' );
  1128  02E5  1683               	bsf	status, 5	;RP0=1, select bank1
  1129  02E6  1303               	bcf	status, 6	;RP1=0, select bank1
  1130  02E7  0865               	movf	(measure@result+1)^080h,w
  1131  02E8  1283               	bcf	status, 5	;RP0=0, select bank0
  1132  02E9  1303               	bcf	status, 6	;RP1=0, select bank0
  1133  02EA  00BE               	movwf	(??_measure+0)+0+1
  1134  02EB  1683               	bsf	status, 5	;RP0=1, select bank1
  1135  02EC  1303               	bcf	status, 6	;RP1=0, select bank1
  1136  02ED  0864               	movf	(measure@result)^080h,w
  1137  02EE  1283               	bcf	status, 5	;RP0=0, select bank0
  1138  02EF  1303               	bcf	status, 6	;RP1=0, select bank0
  1139  02F0  00BD               	movwf	(??_measure+0)+0
  1140  02F1  3004               	movlw	04h
  1141  02F2                     u3265:
  1142  02F2  1003               	clrc
  1143  02F3  0CBE               	rrf	(??_measure+0)+1,f
  1144  02F4  0CBD               	rrf	(??_measure+0)+0,f
  1145  02F5  3EFF               	addlw	-1
  1146  02F6  1D03               	skipz
  1147  02F7  2AF2               	goto	u3265
  1148  02F8  083D               	movf	0+(??_measure+0)+0,w
  1149  02F9  390F               	andlw	0Fh
  1150  02FA  3E30               	addlw	030h
  1151  02FB  118A  2594  118A   	fcall	_send
  1152                           	line	239
  1153                           	
  1154  02FE                     l3235:	
  1155                           ;main.c: 239: send((char) ( result&0x000f )+'0' );
  1156  02FE  1683               	bsf	status, 5	;RP0=1, select bank1
  1157  02FF  1303               	bcf	status, 6	;RP1=0, select bank1
  1158  0300  0864               	movf	(measure@result)^080h,w
  1159  0301  390F               	andlw	0Fh
  1160  0302  3E30               	addlw	030h
  1161  0303  118A  2594  118A   	fcall	_send
  1162                           	line	240
  1163                           	
  1164  0306                     l3237:	
  1165                           ;main.c: 240: heat=8;
  1166  0306  3008               	movlw	(08h)
  1167  0307  1283               	bcf	status, 5	;RP0=0, select bank0
  1168  0308  1303               	bcf	status, 6	;RP1=0, select bank0
  1169  0309  00BD               	movwf	(??_measure+0)+0
  1170  030A  083D               	movf	(??_measure+0)+0,w
  1171  030B  00BF               	movwf	(_heat)
  1172                           	line	241
  1173                           	
  1174  030C                     l3239:	
  1175                           ;main.c: 241: battery();
  1176  030C  118A  212C  118A   	fcall	_battery
  1177                           	line	242
  1178                           	
  1179  030F                     l3241:	
  1180                           ;main.c: 242: sw=2;
  1181  030F  3002               	movlw	(02h)
  1182  0310  1283               	bcf	status, 5	;RP0=0, select bank0
  1183  0311  1303               	bcf	status, 6	;RP1=0, select bank0
  1184  0312  00BD               	movwf	(??_measure+0)+0
  1185  0313  083D               	movf	(??_measure+0)+0,w
  1186  0314  1683               	bsf	status, 5	;RP0=1, select bank1
  1187  0315  1303               	bcf	status, 6	;RP1=0, select bank1
  1188  0316  00E8               	movwf	(_sw)^080h
  1189  0317  2B18               	goto	l597
  1190                           	line	243
  1191                           	
  1192  0318                     l3243:	
  1193                           	line	244
  1194                           ;main.c: 243: return;
  1195                           	
  1196  0318                     l597:	
  1197  0318  0008               	return
  1198                           	opt stack 0
  1199                           GLOBAL	__end_of_measure
  1200  0319                     	__end_of_measure:
  1201 ;; =============== function _measure ends ============
  1202                           
  1203                           	signat	_measure,88
  1204                           	global	_battery
  1205                           psect	text339,local,class=CODE,delta=2
  1206                           global __ptext339
  1207  012C                     __ptext339:
  1208                           
  1209 ;; *************** function _battery *****************
  1210 ;; Defined at:
  1211 ;;		line 267 in file "E:\Dropbox\socialAnalizer\Firmware\V0.23s\main.c"
  1212 ;; Parameters:    Size  Location     Type
  1213 ;;		None
  1214 ;; Auto vars:     Size  Location     Type
  1215 ;;  r               2   15[BANK0 ] unsigned int 
  1216 ;;  t               1   14[BANK0 ] unsigned char 
  1217 ;; Return value:  Size  Location     Type
  1218 ;;		None               void
  1219 ;; Registers used:
  1220 ;;		wreg, status,2, status,0, btemp+1, pclath, cstack
  1221 ;; Tracked objects:
  1222 ;;		On entry : 0/0
  1223 ;;		On exit  : 0/0
  1224 ;;		Unchanged: 0/0
  1225 ;; Data sizes:     COMMON   BANK0   BANK1   BANK2
  1226 ;;      Params:         0       0       0       0
  1227 ;;      Locals:         0       3       0       0
  1228 ;;      Temps:          0       3       0       0
  1229 ;;      Totals:         0       6       0       0
  1230 ;;Total ram usage:        6 bytes
  1231 ;; Hardware stack levels used:    1
  1232 ;; Hardware stack levels required when called:    4
  1233 ;; This function calls:
  1234 ;;		_ADC
  1235 ;;		_send
  1236 ;; This function is called by:
  1237 ;;		_measure
  1238 ;; This function uses a non-reentrant model
  1239 ;;
  1240                           psect	text339
  1241                           	file	"E:\Dropbox\socialAnalizer\Firmware\V0.23s\main.c"
  1242                           	line	267
  1243                           	global	__size_of_battery
  1244  00FF                     	__size_of_battery	equ	__end_of_battery-_battery
  1245                           	
  1246  012C                     _battery:	
  1247                           	opt	stack 2
  1248                           ; Regs used in _battery: [wreg+status,2+status,0+btemp+1+pclath+cstack]
  1249                           	line	269
  1250                           	
  1251  012C                     l3131:	
  1252                           ;main.c: 268: unsigned int r;
  1253                           ;main.c: 269: char t=0;
  1254  012C  1283               	bcf	status, 5	;RP0=0, select bank0
  1255  012D  1303               	bcf	status, 6	;RP1=0, select bank0
  1256  012E  01AE               	clrf	(battery@t)
  1257                           	line	270
  1258                           	
  1259  012F                     l3133:	
  1260                           ;main.c: 270: r=ADC(5);
  1261  012F  3005               	movlw	(05h)
  1262  0130  118A  2530  118A   	fcall	_ADC
  1263  0133  1283               	bcf	status, 5	;RP0=0, select bank0
  1264  0134  1303               	bcf	status, 6	;RP1=0, select bank0
  1265  0135  0825               	movf	(1+(?_ADC)),w
  1266  0136  01B0               	clrf	(battery@r+1)
  1267  0137  07B0               	addwf	(battery@r+1)
  1268  0138  0824               	movf	(0+(?_ADC)),w
  1269  0139  01AF               	clrf	(battery@r)
  1270  013A  07AF               	addwf	(battery@r)
  1271                           
  1272                           	line	271
  1273                           	
  1274  013B                     l3135:	
  1275                           ;main.c: 271: if((!RA4)&&RA5)
  1276  013B  1A05               	btfsc	(44/8),(44)&7
  1277  013C  293E               	goto	u3061
  1278  013D  293F               	goto	u3060
  1279  013E                     u3061:
  1280  013E  2947               	goto	l608
  1281  013F                     u3060:
  1282                           	
  1283  013F                     l3137:	
  1284  013F  1E85               	btfss	(45/8),(45)&7
  1285  0140  2942               	goto	u3071
  1286  0141  2943               	goto	u3070
  1287  0142                     u3071:
  1288  0142  2947               	goto	l608
  1289  0143                     u3070:
  1290                           	line	272
  1291                           	
  1292  0143                     l3139:	
  1293                           ;main.c: 272: t=1;
  1294  0143  01AE               	clrf	(battery@t)
  1295  0144  1403               	bsf	status,0
  1296  0145  0DAE               	rlf	(battery@t),f
  1297  0146  2971               	goto	l3153
  1298                           	line	273
  1299                           	
  1300  0147                     l608:	
  1301                           ;main.c: 273: else if(RA4&&(!RA5))
  1302  0147  1E05               	btfss	(44/8),(44)&7
  1303  0148  294A               	goto	u3081
  1304  0149  294B               	goto	u3080
  1305  014A                     u3081:
  1306  014A  2954               	goto	l610
  1307  014B                     u3080:
  1308                           	
  1309  014B                     l3141:	
  1310  014B  1A85               	btfsc	(45/8),(45)&7
  1311  014C  294E               	goto	u3091
  1312  014D  294F               	goto	u3090
  1313  014E                     u3091:
  1314  014E  2954               	goto	l610
  1315  014F                     u3090:
  1316                           	line	274
  1317                           	
  1318  014F                     l3143:	
  1319                           ;main.c: 274: t=2;
  1320  014F  3002               	movlw	(02h)
  1321  0150  00AB               	movwf	(??_battery+0)+0
  1322  0151  082B               	movf	(??_battery+0)+0,w
  1323  0152  00AE               	movwf	(battery@t)
  1324  0153  2971               	goto	l3153
  1325                           	line	275
  1326                           	
  1327  0154                     l610:	
  1328                           ;main.c: 275: else if(RA4&&RA5)
  1329  0154  1E05               	btfss	(44/8),(44)&7
  1330  0155  2957               	goto	u3101
  1331  0156  2958               	goto	u3100
  1332  0157                     u3101:
  1333  0157  2961               	goto	l612
  1334  0158                     u3100:
  1335                           	
  1336  0158                     l3145:	
  1337  0158  1E85               	btfss	(45/8),(45)&7
  1338  0159  295B               	goto	u3111
  1339  015A  295C               	goto	u3110
  1340  015B                     u3111:
  1341  015B  2961               	goto	l612
  1342  015C                     u3110:
  1343                           	line	276
  1344                           	
  1345  015C                     l3147:	
  1346                           ;main.c: 276: t=3;
  1347  015C  3003               	movlw	(03h)
  1348  015D  00AB               	movwf	(??_battery+0)+0
  1349  015E  082B               	movf	(??_battery+0)+0,w
  1350  015F  00AE               	movwf	(battery@t)
  1351  0160  2971               	goto	l3153
  1352                           	line	277
  1353                           	
  1354  0161                     l612:	
  1355                           ;main.c: 277: else if(!RA5&&!RA4)
  1356  0161  1A85               	btfsc	(45/8),(45)&7
  1357  0162  2964               	goto	u3121
  1358  0163  2965               	goto	u3120
  1359  0164                     u3121:
  1360  0164  2971               	goto	l3153
  1361  0165                     u3120:
  1362                           	
  1363  0165                     l3149:	
  1364  0165  1A05               	btfsc	(44/8),(44)&7
  1365  0166  2968               	goto	u3131
  1366  0167  2969               	goto	u3130
  1367  0168                     u3131:
  1368  0168  2971               	goto	l3153
  1369  0169                     u3130:
  1370                           	line	278
  1371                           	
  1372  0169                     l3151:	
  1373                           ;main.c: 278: t=4;
  1374  0169  3004               	movlw	(04h)
  1375  016A  00AB               	movwf	(??_battery+0)+0
  1376  016B  082B               	movf	(??_battery+0)+0,w
  1377  016C  00AE               	movwf	(battery@t)
  1378  016D  2971               	goto	l3153
  1379                           	
  1380  016E                     l614:	
  1381  016E  2971               	goto	l3153
  1382                           	line	283
  1383                           	
  1384  016F                     l613:	
  1385  016F  2971               	goto	l3153
  1386                           	
  1387  0170                     l611:	
  1388  0170  2971               	goto	l3153
  1389                           	
  1390  0171                     l609:	
  1391                           	
  1392  0171                     l3153:	
  1393                           ;main.c: 283: send('B');
  1394  0171  3042               	movlw	(042h)
  1395  0172  118A  2594  118A   	fcall	_send
  1396                           	line	284
  1397                           	
  1398  0175                     l3155:	
  1399                           ;main.c: 284: send((char)(((t)+'0')));
  1400  0175  1283               	bcf	status, 5	;RP0=0, select bank0
  1401  0176  1303               	bcf	status, 6	;RP1=0, select bank0
  1402  0177  082E               	movf	(battery@t),w
  1403  0178  3E30               	addlw	030h
  1404  0179  118A  2594  118A   	fcall	_send
  1405                           	line	285
  1406                           	
  1407  017C                     l3157:	
  1408                           ;main.c: 285: send((char)(((r&0x03ff)&0x0f00)>>8 )+'0' );
  1409  017C  1283               	bcf	status, 5	;RP0=0, select bank0
  1410  017D  1303               	bcf	status, 6	;RP1=0, select bank0
  1411  017E  0830               	movf	(battery@r+1),w
  1412  017F  3903               	andlw	03h
  1413  0180  3E30               	addlw	030h
  1414  0181  118A  2594  118A   	fcall	_send
  1415                           	line	286
  1416                           	
  1417  0184                     l3159:	
  1418                           ;main.c: 286: send((char)(((r&0x03ff)&0x00f0)>>4 )+'0' );
  1419  0184  1283               	bcf	status, 5	;RP0=0, select bank0
  1420  0185  1303               	bcf	status, 6	;RP1=0, select bank0
  1421  0186  0830               	movf	(battery@r+1),w
  1422  0187  00AC               	movwf	(??_battery+0)+0+1
  1423  0188  082F               	movf	(battery@r),w
  1424  0189  00AB               	movwf	(??_battery+0)+0
  1425  018A  3004               	movlw	04h
  1426  018B                     u3145:
  1427  018B  1003               	clrc
  1428  018C  0CAC               	rrf	(??_battery+0)+1,f
  1429  018D  0CAB               	rrf	(??_battery+0)+0,f
  1430  018E  3EFF               	addlw	-1
  1431  018F  1D03               	skipz
  1432  0190  298B               	goto	u3145
  1433  0191  082B               	movf	0+(??_battery+0)+0,w
  1434  0192  390F               	andlw	0Fh
  1435  0193  3E30               	addlw	030h
  1436  0194  118A  2594  118A   	fcall	_send
  1437                           	line	287
  1438                           	
  1439  0197                     l3161:	
  1440                           ;main.c: 287: send((char)((r&0x03ff)&0x000f )+'0' );
  1441  0197  1283               	bcf	status, 5	;RP0=0, select bank0
  1442  0198  1303               	bcf	status, 6	;RP1=0, select bank0
  1443  0199  082F               	movf	(battery@r),w
  1444  019A  390F               	andlw	0Fh
  1445  019B  3E30               	addlw	030h
  1446  019C  118A  2594  118A   	fcall	_send
  1447                           	line	288
  1448                           	
  1449  019F                     l3163:	
  1450                           ;main.c: 288: if(r<735)
  1451  019F  3002               	movlw	high(02DFh)
  1452  01A0  1283               	bcf	status, 5	;RP0=0, select bank0
  1453  01A1  1303               	bcf	status, 6	;RP1=0, select bank0
  1454  01A2  0230               	subwf	(battery@r+1),w
  1455  01A3  30DF               	movlw	low(02DFh)
  1456  01A4  1903               	skipnz
  1457  01A5  022F               	subwf	(battery@r),w
  1458  01A6  1803               	skipnc
  1459  01A7  29A9               	goto	u3151
  1460  01A8  29AA               	goto	u3150
  1461  01A9                     u3151:
  1462  01A9  29E7               	goto	l3175
  1463  01AA                     u3150:
  1464                           	line	290
  1465                           	
  1466  01AA                     l3165:	
  1467                           ;main.c: 289: {
  1468                           ;main.c: 290: for(r=0;r<5;r++)
  1469  01AA  01AF               	clrf	(battery@r)
  1470  01AB  01B0               	clrf	(battery@r+1)
  1471                           	
  1472  01AC                     l3167:	
  1473  01AC  3000               	movlw	high(05h)
  1474  01AD  0230               	subwf	(battery@r+1),w
  1475  01AE  3005               	movlw	low(05h)
  1476  01AF  1903               	skipnz
  1477  01B0  022F               	subwf	(battery@r),w
  1478  01B1  1C03               	skipc
  1479  01B2  29B4               	goto	u3161
  1480  01B3  29B5               	goto	u3160
  1481  01B4                     u3161:
  1482  01B4  29B7               	goto	l616
  1483  01B5                     u3160:
  1484  01B5  29E7               	goto	l3175
  1485                           	
  1486  01B6                     l3169:	
  1487  01B6  29E7               	goto	l3175
  1488                           	line	291
  1489                           	
  1490  01B7                     l616:	
  1491                           	line	292
  1492                           ;main.c: 291: {
  1493                           ;main.c: 292: RC0=0;
  1494  01B7  1007               	bcf	(56/8),(56)&7
  1495                           	line	293
  1496                           	
  1497  01B8                     l3171:	
  1498                           ;main.c: 293: _delay(2000000);
  1499                           	opt asmopt_off
  1500  01B8  300B               movlw  11
  1501  01B9  00AD               movwf	((??_battery+0)+0+2),f
  1502  01BA  3026               movlw	38
  1503  01BB  00AC               movwf	((??_battery+0)+0+1),f
  1504  01BC  3066               	movlw	102
  1505  01BD  00AB               movwf	((??_battery+0)+0),f
  1506  01BE                     u3337:
  1507  01BE  0BAB               	decfsz	((??_battery+0)+0),f
  1508  01BF  29BE               	goto	u3337
  1509  01C0  0BAC               	decfsz	((??_battery+0)+0+1),f
  1510  01C1  29BE               	goto	u3337
  1511  01C2  0BAD               	decfsz	((??_battery+0)+0+2),f
  1512  01C3  29BE               	goto	u3337
  1513  01C4  29C5               	nop2
  1514                           opt asmopt_on
  1515                           
  1516                           	line	294
  1517                           	
  1518  01C5                     l3173:	
  1519                           ;main.c: 294: RC0=1;
  1520  01C5  1283               	bcf	status, 5	;RP0=0, select bank0
  1521  01C6  1303               	bcf	status, 6	;RP1=0, select bank0
  1522  01C7  1407               	bsf	(56/8),(56)&7
  1523                           	line	295
  1524                           ;main.c: 295: _delay(2000000/5);
  1525                           	opt asmopt_off
  1526  01C8  3003               movlw  3
  1527  01C9  00AD               movwf	((??_battery+0)+0+2),f
  1528  01CA  3008               movlw	8
  1529  01CB  00AC               movwf	((??_battery+0)+0+1),f
  1530  01CC  3078               	movlw	120
  1531  01CD  00AB               movwf	((??_battery+0)+0),f
  1532  01CE                     u3347:
  1533  01CE  0BAB               	decfsz	((??_battery+0)+0),f
  1534  01CF  29CE               	goto	u3347
  1535  01D0  0BAC               	decfsz	((??_battery+0)+0+1),f
  1536  01D1  29CE               	goto	u3347
  1537  01D2  0BAD               	decfsz	((??_battery+0)+0+2),f
  1538  01D3  29CE               	goto	u3347
  1539                           opt asmopt_on
  1540                           
  1541                           	line	290
  1542  01D4  3001               	movlw	low(01h)
  1543  01D5  1283               	bcf	status, 5	;RP0=0, select bank0
  1544  01D6  1303               	bcf	status, 6	;RP1=0, select bank0
  1545  01D7  07AF               	addwf	(battery@r),f
  1546  01D8  1803               	skipnc
  1547  01D9  0AB0               	incf	(battery@r+1),f
  1548  01DA  3000               	movlw	high(01h)
  1549  01DB  07B0               	addwf	(battery@r+1),f
  1550  01DC  3000               	movlw	high(05h)
  1551  01DD  0230               	subwf	(battery@r+1),w
  1552  01DE  3005               	movlw	low(05h)
  1553  01DF  1903               	skipnz
  1554  01E0  022F               	subwf	(battery@r),w
  1555  01E1  1C03               	skipc
  1556  01E2  29E4               	goto	u3171
  1557  01E3  29E5               	goto	u3170
  1558  01E4                     u3171:
  1559  01E4  29B7               	goto	l616
  1560  01E5                     u3170:
  1561  01E5  29E7               	goto	l3175
  1562                           	
  1563  01E6                     l617:	
  1564  01E6  29E7               	goto	l3175
  1565                           	line	297
  1566                           	
  1567  01E7                     l615:	
  1568                           	line	298
  1569                           	
  1570  01E7                     l3175:	
  1571                           ;main.c: 296: }
  1572                           ;main.c: 297: }
  1573                           ;main.c: 298: if(t==4)
  1574  01E7  082E               	movf	(battery@t),w
  1575  01E8  3A04               	xorlw	04h
  1576  01E9  1D03               	skipz
  1577  01EA  29EC               	goto	u3181
  1578  01EB  29ED               	goto	u3180
  1579  01EC                     u3181:
  1580  01EC  2A2A               	goto	l621
  1581  01ED                     u3180:
  1582                           	line	300
  1583                           	
  1584  01ED                     l3177:	
  1585                           ;main.c: 299: {
  1586                           ;main.c: 300: for(r=0;r<5;r++)
  1587  01ED  01AF               	clrf	(battery@r)
  1588  01EE  01B0               	clrf	(battery@r+1)
  1589                           	
  1590  01EF                     l3179:	
  1591  01EF  3000               	movlw	high(05h)
  1592  01F0  0230               	subwf	(battery@r+1),w
  1593  01F1  3005               	movlw	low(05h)
  1594  01F2  1903               	skipnz
  1595  01F3  022F               	subwf	(battery@r),w
  1596  01F4  1C03               	skipc
  1597  01F5  29F7               	goto	u3191
  1598  01F6  29F8               	goto	u3190
  1599  01F7                     u3191:
  1600  01F7  29FA               	goto	l619
  1601  01F8                     u3190:
  1602  01F8  2A2A               	goto	l621
  1603                           	
  1604  01F9                     l3181:	
  1605  01F9  2A2A               	goto	l621
  1606                           	line	301
  1607                           	
  1608  01FA                     l619:	
  1609                           	line	302
  1610                           ;main.c: 301: {
  1611                           ;main.c: 302: RC0=0;
  1612  01FA  1007               	bcf	(56/8),(56)&7
  1613                           	line	303
  1614                           	
  1615  01FB                     l3183:	
  1616                           ;main.c: 303: _delay(2000000/5);
  1617                           	opt asmopt_off
  1618  01FB  3003               movlw  3
  1619  01FC  00AD               movwf	((??_battery+0)+0+2),f
  1620  01FD  3008               movlw	8
  1621  01FE  00AC               movwf	((??_battery+0)+0+1),f
  1622  01FF  3078               	movlw	120
  1623  0200  00AB               movwf	((??_battery+0)+0),f
  1624  0201                     u3357:
  1625  0201  0BAB               	decfsz	((??_battery+0)+0),f
  1626  0202  2A01               	goto	u3357
  1627  0203  0BAC               	decfsz	((??_battery+0)+0+1),f
  1628  0204  2A01               	goto	u3357
  1629  0205  0BAD               	decfsz	((??_battery+0)+0+2),f
  1630  0206  2A01               	goto	u3357
  1631                           opt asmopt_on
  1632                           
  1633                           	line	304
  1634                           	
  1635  0207                     l3185:	
  1636                           ;main.c: 304: RC0=1;
  1637  0207  1283               	bcf	status, 5	;RP0=0, select bank0
  1638  0208  1303               	bcf	status, 6	;RP1=0, select bank0
  1639  0209  1407               	bsf	(56/8),(56)&7
  1640                           	line	305
  1641                           ;main.c: 305: _delay(2000000);
  1642                           	opt asmopt_off
  1643  020A  300B               movlw  11
  1644  020B  00AD               movwf	((??_battery+0)+0+2),f
  1645  020C  3026               movlw	38
  1646  020D  00AC               movwf	((??_battery+0)+0+1),f
  1647  020E  3066               	movlw	102
  1648  020F  00AB               movwf	((??_battery+0)+0),f
  1649  0210                     u3367:
  1650  0210  0BAB               	decfsz	((??_battery+0)+0),f
  1651  0211  2A10               	goto	u3367
  1652  0212  0BAC               	decfsz	((??_battery+0)+0+1),f
  1653  0213  2A10               	goto	u3367
  1654  0214  0BAD               	decfsz	((??_battery+0)+0+2),f
  1655  0215  2A10               	goto	u3367
  1656  0216  2A17               	nop2
  1657                           opt asmopt_on
  1658                           
  1659                           	line	300
  1660  0217  3001               	movlw	low(01h)
  1661  0218  1283               	bcf	status, 5	;RP0=0, select bank0
  1662  0219  1303               	bcf	status, 6	;RP1=0, select bank0
  1663  021A  07AF               	addwf	(battery@r),f
  1664  021B  1803               	skipnc
  1665  021C  0AB0               	incf	(battery@r+1),f
  1666  021D  3000               	movlw	high(01h)
  1667  021E  07B0               	addwf	(battery@r+1),f
  1668  021F  3000               	movlw	high(05h)
  1669  0220  0230               	subwf	(battery@r+1),w
  1670  0221  3005               	movlw	low(05h)
  1671  0222  1903               	skipnz
  1672  0223  022F               	subwf	(battery@r),w
  1673  0224  1C03               	skipc
  1674  0225  2A27               	goto	u3201
  1675  0226  2A28               	goto	u3200
  1676  0227                     u3201:
  1677  0227  29FA               	goto	l619
  1678  0228                     u3200:
  1679  0228  2A2A               	goto	l621
  1680                           	
  1681  0229                     l620:	
  1682  0229  2A2A               	goto	l621
  1683                           	line	307
  1684                           	
  1685  022A                     l618:	
  1686                           	line	308
  1687                           	
  1688  022A                     l621:	
  1689  022A  0008               	return
  1690                           	opt stack 0
  1691                           GLOBAL	__end_of_battery
  1692  022B                     	__end_of_battery:
  1693 ;; =============== function _battery ends ============
  1694                           
  1695                           	signat	_battery,88
  1696                           	global	_promilage
  1697                           psect	text340,local,class=CODE,delta=2
  1698                           global __ptext340
  1699  0319                     __ptext340:
  1700                           
  1701 ;; *************** function _promilage *****************
  1702 ;; Defined at:
  1703 ;;		line 247 in file "E:\Dropbox\socialAnalizer\Firmware\V0.23s\main.c"
  1704 ;; Parameters:    Size  Location     Type
  1705 ;;  r               1    wreg     PTR unsigned int 
  1706 ;;		 -> measure@r(68), 
  1707 ;; Auto vars:     Size  Location     Type
  1708 ;;  r               1   26[BANK0 ] PTR unsigned int 
  1709 ;;		 -> measure@r(68), 
  1710 ;;  i               2   27[BANK0 ] unsigned int 
  1711 ;;  res1            2   24[BANK0 ] unsigned int 
  1712 ;;  res2            2   22[BANK0 ] unsigned int 
  1713 ;;  c               2   20[BANK0 ] unsigned int 
  1714 ;; Return value:  Size  Location     Type
  1715 ;;                  2   12[BANK0 ] unsigned int 
  1716 ;; Registers used:
  1717 ;;		wreg, fsr0l, fsr0h, status,2, status,0, pclath, cstack
  1718 ;; Tracked objects:
  1719 ;;		On entry : 0/0
  1720 ;;		On exit  : 0/0
  1721 ;;		Unchanged: 0/0
  1722 ;; Data sizes:     COMMON   BANK0   BANK1   BANK2
  1723 ;;      Params:         0       2       0       0
  1724 ;;      Locals:         0       9       0       0
  1725 ;;      Temps:          0       6       0       0
  1726 ;;      Totals:         0      17       0       0
  1727 ;;Total ram usage:       17 bytes
  1728 ;; Hardware stack levels used:    1
  1729 ;; Hardware stack levels required when called:    4
  1730 ;; This function calls:
  1731 ;;		___lwdiv
  1732 ;; This function is called by:
  1733 ;;		_measure
  1734 ;; This function uses a non-reentrant model
  1735 ;;
  1736                           psect	text340
  1737                           	file	"E:\Dropbox\socialAnalizer\Firmware\V0.23s\main.c"
  1738                           	line	247
  1739                           	global	__size_of_promilage
  1740  00E0                     	__size_of_promilage	equ	__end_of_promilage-_promilage
  1741                           	
  1742  0319                     _promilage:	
  1743                           	opt	stack 2
  1744                           ; Regs used in _promilage: [wreg-fsr0h+status,2+status,0+pclath+cstack]
  1745                           ;promilage@r stored from wreg
  1746  0319  1283               	bcf	status, 5	;RP0=0, select bank0
  1747  031A  1303               	bcf	status, 6	;RP1=0, select bank0
  1748  031B  00BA               	movwf	(promilage@r)
  1749                           	line	248
  1750                           	
  1751  031C                     l3093:	
  1752                           ;main.c: 248: unsigned int res1=0, res2=0,i,c=0;
  1753  031C  01B8               	clrf	(promilage@res1)
  1754  031D  01B9               	clrf	(promilage@res1+1)
  1755  031E  01B6               	clrf	(promilage@res2)
  1756  031F  01B7               	clrf	(promilage@res2+1)
  1757  0320  01B4               	clrf	(promilage@c)
  1758  0321  01B5               	clrf	(promilage@c+1)
  1759                           	line	249
  1760                           ;main.c: 249: for(i=0;i<34;i++)
  1761  0322  01BB               	clrf	(promilage@i)
  1762  0323  01BC               	clrf	(promilage@i+1)
  1763                           	
  1764  0324                     l3095:	
  1765  0324  3000               	movlw	high(022h)
  1766  0325  023C               	subwf	(promilage@i+1),w
  1767  0326  3022               	movlw	low(022h)
  1768  0327  1903               	skipnz
  1769  0328  023B               	subwf	(promilage@i),w
  1770  0329  1C03               	skipc
  1771  032A  2B2C               	goto	u3001
  1772  032B  2B2D               	goto	u3000
  1773  032C                     u3001:
  1774  032C  2B2F               	goto	l3099
  1775  032D                     u3000:
  1776  032D  2B52               	goto	l3105
  1777                           	
  1778  032E                     l3097:	
  1779  032E  2B52               	goto	l3105
  1780                           	line	250
  1781                           	
  1782  032F                     l600:	
  1783                           	line	251
  1784                           	
  1785  032F                     l3099:	
  1786                           ;main.c: 250: {
  1787                           ;main.c: 251: res1+=r[i];
  1788  032F  083B               	movf	(promilage@i),w
  1789  0330  00AE               	movwf	(??_promilage+0)+0
  1790  0331  072E               	addwf	(??_promilage+0)+0,w
  1791  0332  073A               	addwf	(promilage@r),w
  1792  0333  00AF               	movwf	(??_promilage+1)+0
  1793  0334  082F               	movf	0+(??_promilage+1)+0,w
  1794  0335  0084               	movwf	fsr0
  1795  0336  1383               	bcf	status, 7	;select IRP bank0
  1796  0337  0800               	movf	indf,w
  1797  0338  00B0               	movwf	(??_promilage+2)+0+0
  1798  0339  0A84               	incf	fsr0,f
  1799  033A  0800               	movf	indf,w
  1800  033B  00B1               	movwf	(??_promilage+2)+0+1
  1801  033C  0830               	movf	0+(??_promilage+2)+0,w
  1802  033D  07B8               	addwf	(promilage@res1),f
  1803  033E  1803               	skipnc
  1804  033F  0AB9               	incf	(promilage@res1+1),f
  1805  0340  0831               	movf	1+(??_promilage+2)+0,w
  1806  0341  07B9               	addwf	(promilage@res1+1),f
  1807                           	line	249
  1808                           	
  1809  0342                     l3101:	
  1810  0342  3001               	movlw	low(01h)
  1811  0343  07BB               	addwf	(promilage@i),f
  1812  0344  1803               	skipnc
  1813  0345  0ABC               	incf	(promilage@i+1),f
  1814  0346  3000               	movlw	high(01h)
  1815  0347  07BC               	addwf	(promilage@i+1),f
  1816                           	
  1817  0348                     l3103:	
  1818  0348  3000               	movlw	high(022h)
  1819  0349  023C               	subwf	(promilage@i+1),w
  1820  034A  3022               	movlw	low(022h)
  1821  034B  1903               	skipnz
  1822  034C  023B               	subwf	(promilage@i),w
  1823  034D  1C03               	skipc
  1824  034E  2B50               	goto	u3011
  1825  034F  2B51               	goto	u3010
  1826  0350                     u3011:
  1827  0350  2B2F               	goto	l3099
  1828  0351                     u3010:
  1829  0351  2B52               	goto	l3105
  1830                           	
  1831  0352                     l601:	
  1832                           	line	253
  1833                           	
  1834  0352                     l3105:	
  1835                           ;main.c: 252: }
  1836                           ;main.c: 253: res1/=34;
  1837  0352  3022               	movlw	low(022h)
  1838  0353  00A4               	movwf	(?___lwdiv)
  1839  0354  3000               	movlw	high(022h)
  1840  0355  00A5               	movwf	((?___lwdiv))+1
  1841  0356  0839               	movf	(promilage@res1+1),w
  1842  0357  01A7               	clrf	1+(?___lwdiv)+02h
  1843  0358  07A7               	addwf	1+(?___lwdiv)+02h
  1844  0359  0838               	movf	(promilage@res1),w
  1845  035A  01A6               	clrf	0+(?___lwdiv)+02h
  1846  035B  07A6               	addwf	0+(?___lwdiv)+02h
  1847                           
  1848  035C  118A  2460  118A   	fcall	___lwdiv
  1849  035F  1283               	bcf	status, 5	;RP0=0, select bank0
  1850  0360  1303               	bcf	status, 6	;RP1=0, select bank0
  1851  0361  0825               	movf	(1+(?___lwdiv)),w
  1852  0362  01B9               	clrf	(promilage@res1+1)
  1853  0363  07B9               	addwf	(promilage@res1+1)
  1854  0364  0824               	movf	(0+(?___lwdiv)),w
  1855  0365  01B8               	clrf	(promilage@res1)
  1856  0366  07B8               	addwf	(promilage@res1)
  1857                           
  1858                           	line	254
  1859                           	
  1860  0367                     l3107:	
  1861                           ;main.c: 254: for(i=0;i<34;i++)
  1862  0367  01BB               	clrf	(promilage@i)
  1863  0368  01BC               	clrf	(promilage@i+1)
  1864                           	
  1865  0369                     l3109:	
  1866  0369  3000               	movlw	high(022h)
  1867  036A  023C               	subwf	(promilage@i+1),w
  1868  036B  3022               	movlw	low(022h)
  1869  036C  1903               	skipnz
  1870  036D  023B               	subwf	(promilage@i),w
  1871  036E  1C03               	skipc
  1872  036F  2B71               	goto	u3021
  1873  0370  2B72               	goto	u3020
  1874  0371                     u3021:
  1875  0371  2B74               	goto	l3113
  1876  0372                     u3020:
  1877  0372  2BDA               	goto	l3125
  1878                           	
  1879  0373                     l3111:	
  1880  0373  2BDA               	goto	l3125
  1881                           	line	255
  1882                           	
  1883  0374                     l602:	
  1884                           	line	256
  1885                           	
  1886  0374                     l3113:	
  1887                           ;main.c: 255: {
  1888                           ;main.c: 256: if((r[i]<(res1+30))&&(r[i]>(res1-30)))
  1889  0374  0838               	movf	(promilage@res1),w
  1890  0375  3E1E               	addlw	low(01Eh)
  1891  0376  00AE               	movwf	(??_promilage+0)+0
  1892  0377  0839               	movf	(promilage@res1+1),w
  1893  0378  1803               	skipnc
  1894  0379  3E01               	addlw	1
  1895  037A  3E00               	addlw	high(01Eh)
  1896  037B  00AF               	movwf	1+(??_promilage+0)+0
  1897  037C  083B               	movf	(promilage@i),w
  1898  037D  00B0               	movwf	(??_promilage+2)+0
  1899  037E  0730               	addwf	(??_promilage+2)+0,w
  1900  037F  073A               	addwf	(promilage@r),w
  1901  0380  00B1               	movwf	(??_promilage+3)+0
  1902  0381  0831               	movf	0+(??_promilage+3)+0,w
  1903  0382  0084               	movwf	fsr0
  1904  0383  1383               	bcf	status, 7	;select IRP bank0
  1905  0384  0800               	movf	indf,w
  1906  0385  00B2               	movwf	(??_promilage+4)+0+0
  1907  0386  0A84               	incf	fsr0,f
  1908  0387  0800               	movf	indf,w
  1909  0388  00B3               	movwf	(??_promilage+4)+0+1
  1910  0389  082F               	movf	1+(??_promilage+0)+0,w
  1911  038A  0233               	subwf	1+(??_promilage+4)+0,w
  1912  038B  1D03               	skipz
  1913  038C  2B8F               	goto	u3035
  1914  038D  082E               	movf	0+(??_promilage+0)+0,w
  1915  038E  0232               	subwf	0+(??_promilage+4)+0,w
  1916  038F                     u3035:
  1917  038F  1803               	skipnc
  1918  0390  2B92               	goto	u3031
  1919  0391  2B93               	goto	u3030
  1920  0392                     u3031:
  1921  0392  2BCA               	goto	l3121
  1922  0393                     u3030:
  1923                           	
  1924  0393                     l3115:	
  1925  0393  083B               	movf	(promilage@i),w
  1926  0394  00AE               	movwf	(??_promilage+0)+0
  1927  0395  072E               	addwf	(??_promilage+0)+0,w
  1928  0396  073A               	addwf	(promilage@r),w
  1929  0397  00AF               	movwf	(??_promilage+1)+0
  1930  0398  082F               	movf	0+(??_promilage+1)+0,w
  1931  0399  0084               	movwf	fsr0
  1932  039A  0800               	movf	indf,w
  1933  039B  00B0               	movwf	(??_promilage+2)+0+0
  1934  039C  0A84               	incf	fsr0,f
  1935  039D  0800               	movf	indf,w
  1936  039E  00B1               	movwf	(??_promilage+2)+0+1
  1937  039F  0838               	movf	(promilage@res1),w
  1938  03A0  3EE2               	addlw	low(0FFE2h)
  1939  03A1  00B2               	movwf	(??_promilage+4)+0
  1940  03A2  0839               	movf	(promilage@res1+1),w
  1941  03A3  1803               	skipnc
  1942  03A4  3E01               	addlw	1
  1943  03A5  3EFF               	addlw	high(0FFE2h)
  1944  03A6  00B3               	movwf	1+(??_promilage+4)+0
  1945  03A7  0831               	movf	1+(??_promilage+2)+0,w
  1946  03A8  0233               	subwf	1+(??_promilage+4)+0,w
  1947  03A9  1D03               	skipz
  1948  03AA  2BAD               	goto	u3045
  1949  03AB  0830               	movf	0+(??_promilage+2)+0,w
  1950  03AC  0232               	subwf	0+(??_promilage+4)+0,w
  1951  03AD                     u3045:
  1952  03AD  1803               	skipnc
  1953  03AE  2BB0               	goto	u3041
  1954  03AF  2BB1               	goto	u3040
  1955  03B0                     u3041:
  1956  03B0  2BCA               	goto	l3121
  1957  03B1                     u3040:
  1958                           	line	258
  1959                           	
  1960  03B1                     l3117:	
  1961                           ;main.c: 257: {
  1962                           ;main.c: 258: c++;
  1963  03B1  3001               	movlw	low(01h)
  1964  03B2  07B4               	addwf	(promilage@c),f
  1965  03B3  1803               	skipnc
  1966  03B4  0AB5               	incf	(promilage@c+1),f
  1967  03B5  3000               	movlw	high(01h)
  1968  03B6  07B5               	addwf	(promilage@c+1),f
  1969                           	line	259
  1970                           	
  1971  03B7                     l3119:	
  1972                           ;main.c: 259: res2+=r[i];
  1973  03B7  083B               	movf	(promilage@i),w
  1974  03B8  00AE               	movwf	(??_promilage+0)+0
  1975  03B9  072E               	addwf	(??_promilage+0)+0,w
  1976  03BA  073A               	addwf	(promilage@r),w
  1977  03BB  00AF               	movwf	(??_promilage+1)+0
  1978  03BC  082F               	movf	0+(??_promilage+1)+0,w
  1979  03BD  0084               	movwf	fsr0
  1980  03BE  0800               	movf	indf,w
  1981  03BF  00B0               	movwf	(??_promilage+2)+0+0
  1982  03C0  0A84               	incf	fsr0,f
  1983  03C1  0800               	movf	indf,w
  1984  03C2  00B1               	movwf	(??_promilage+2)+0+1
  1985  03C3  0830               	movf	0+(??_promilage+2)+0,w
  1986  03C4  07B6               	addwf	(promilage@res2),f
  1987  03C5  1803               	skipnc
  1988  03C6  0AB7               	incf	(promilage@res2+1),f
  1989  03C7  0831               	movf	1+(??_promilage+2)+0,w
  1990  03C8  07B7               	addwf	(promilage@res2+1),f
  1991  03C9  2BCA               	goto	l3121
  1992                           	line	260
  1993                           	
  1994  03CA                     l604:	
  1995                           	line	254
  1996                           	
  1997  03CA                     l3121:	
  1998  03CA  3001               	movlw	low(01h)
  1999  03CB  07BB               	addwf	(promilage@i),f
  2000  03CC  1803               	skipnc
  2001  03CD  0ABC               	incf	(promilage@i+1),f
  2002  03CE  3000               	movlw	high(01h)
  2003  03CF  07BC               	addwf	(promilage@i+1),f
  2004                           	
  2005  03D0                     l3123:	
  2006  03D0  3000               	movlw	high(022h)
  2007  03D1  023C               	subwf	(promilage@i+1),w
  2008  03D2  3022               	movlw	low(022h)
  2009  03D3  1903               	skipnz
  2010  03D4  023B               	subwf	(promilage@i),w
  2011  03D5  1C03               	skipc
  2012  03D6  2BD8               	goto	u3051
  2013  03D7  2BD9               	goto	u3050
  2014  03D8                     u3051:
  2015  03D8  2B74               	goto	l3113
  2016  03D9                     u3050:
  2017  03D9  2BDA               	goto	l3125
  2018                           	
  2019  03DA                     l603:	
  2020                           	line	262
  2021                           	
  2022  03DA                     l3125:	
  2023                           ;main.c: 260: }
  2024                           ;main.c: 261: }
  2025                           ;main.c: 262: res2/=c;
  2026  03DA  0835               	movf	(promilage@c+1),w
  2027  03DB  01A5               	clrf	(?___lwdiv+1)
  2028  03DC  07A5               	addwf	(?___lwdiv+1)
  2029  03DD  0834               	movf	(promilage@c),w
  2030  03DE  01A4               	clrf	(?___lwdiv)
  2031  03DF  07A4               	addwf	(?___lwdiv)
  2032                           
  2033  03E0  0837               	movf	(promilage@res2+1),w
  2034  03E1  01A7               	clrf	1+(?___lwdiv)+02h
  2035  03E2  07A7               	addwf	1+(?___lwdiv)+02h
  2036  03E3  0836               	movf	(promilage@res2),w
  2037  03E4  01A6               	clrf	0+(?___lwdiv)+02h
  2038  03E5  07A6               	addwf	0+(?___lwdiv)+02h
  2039                           
  2040  03E6  118A  2460  118A   	fcall	___lwdiv
  2041  03E9  1283               	bcf	status, 5	;RP0=0, select bank0
  2042  03EA  1303               	bcf	status, 6	;RP1=0, select bank0
  2043  03EB  0825               	movf	(1+(?___lwdiv)),w
  2044  03EC  01B7               	clrf	(promilage@res2+1)
  2045  03ED  07B7               	addwf	(promilage@res2+1)
  2046  03EE  0824               	movf	(0+(?___lwdiv)),w
  2047  03EF  01B6               	clrf	(promilage@res2)
  2048  03F0  07B6               	addwf	(promilage@res2)
  2049                           
  2050                           	line	263
  2051                           	
  2052  03F1                     l3127:	
  2053                           ;main.c: 263: return res2;
  2054  03F1  0837               	movf	(promilage@res2+1),w
  2055  03F2  01AD               	clrf	(?_promilage+1)
  2056  03F3  07AD               	addwf	(?_promilage+1)
  2057  03F4  0836               	movf	(promilage@res2),w
  2058  03F5  01AC               	clrf	(?_promilage)
  2059  03F6  07AC               	addwf	(?_promilage)
  2060                           
  2061  03F7  2BF8               	goto	l605
  2062                           	
  2063  03F8                     l3129:	
  2064                           	line	264
  2065                           	
  2066  03F8                     l605:	
  2067  03F8  0008               	return
  2068                           	opt stack 0
  2069                           GLOBAL	__end_of_promilage
  2070  03F9                     	__end_of_promilage:
  2071 ;; =============== function _promilage ends ============
  2072                           
  2073                           	signat	_promilage,4218
  2074                           	global	_ADC
  2075                           psect	text341,local,class=CODE,delta=2
  2076                           global __ptext341
  2077  0530                     __ptext341:
  2078                           
  2079 ;; *************** function _ADC *****************
  2080 ;; Defined at:
  2081 ;;		line 311 in file "E:\Dropbox\socialAnalizer\Firmware\V0.23s\main.c"
  2082 ;; Parameters:    Size  Location     Type
  2083 ;;  channel         1    wreg     unsigned char 
  2084 ;; Auto vars:     Size  Location     Type
  2085 ;;  channel         1   10[BANK0 ] unsigned char 
  2086 ;; Return value:  Size  Location     Type
  2087 ;;                  2    4[BANK0 ] int 
  2088 ;; Registers used:
  2089 ;;		wreg, status,2, status,0, btemp+1
  2090 ;; Tracked objects:
  2091 ;;		On entry : 0/0
  2092 ;;		On exit  : 0/0
  2093 ;;		Unchanged: 0/0
  2094 ;; Data sizes:     COMMON   BANK0   BANK1   BANK2
  2095 ;;      Params:         0       2       0       0
  2096 ;;      Locals:         0       1       0       0
  2097 ;;      Temps:          0       4       0       0
  2098 ;;      Totals:         0       7       0       0
  2099 ;;Total ram usage:        7 bytes
  2100 ;; Hardware stack levels used:    1
  2101 ;; Hardware stack levels required when called:    3
  2102 ;; This function calls:
  2103 ;;		Nothing
  2104 ;; This function is called by:
  2105 ;;		_measure
  2106 ;;		_battery
  2107 ;; This function uses a non-reentrant model
  2108 ;;
  2109                           psect	text341
  2110                           	file	"E:\Dropbox\socialAnalizer\Firmware\V0.23s\main.c"
  2111                           	line	311
  2112                           	global	__size_of_ADC
  2113  0036                     	__size_of_ADC	equ	__end_of_ADC-_ADC
  2114                           	
  2115  0530                     _ADC:	
  2116                           	opt	stack 2
  2117                           ; Regs used in _ADC: [wreg+status,2+status,0+btemp+1]
  2118                           ;ADC@channel stored from wreg
  2119  0530  1283               	bcf	status, 5	;RP0=0, select bank0
  2120  0531  1303               	bcf	status, 6	;RP1=0, select bank0
  2121  0532  00AA               	movwf	(ADC@channel)
  2122                           	line	312
  2123                           	
  2124  0533                     l3083:	
  2125                           ;main.c: 312: ADCON0=(channel<<2)|(0b10000001);
  2126  0533  082A               	movf	(ADC@channel),w
  2127  0534  00A6               	movwf	(??_ADC+0)+0
  2128  0535  3001               	movlw	(02h)-1
  2129  0536                     u2985:
  2130  0536  1003               	clrc
  2131  0537  0DA6               	rlf	(??_ADC+0)+0,f
  2132  0538  3EFF               	addlw	-1
  2133  0539  1D03               	skipz
  2134  053A  2D36               	goto	u2985
  2135  053B  1003               	clrc
  2136  053C  0D26               	rlf	(??_ADC+0)+0,w
  2137  053D  3881               	iorlw	081h
  2138  053E  009F               	movwf	(31)	;volatile
  2139                           	line	313
  2140                           	
  2141  053F                     l3085:	
  2142                           ;main.c: 313: _delay(2000000/50);
  2143                           	opt asmopt_off
  2144  053F  3034               movlw	52
  2145  0540  00A7               movwf	((??_ADC+0)+0+1),f
  2146  0541  30F1               	movlw	241
  2147  0542  00A6               movwf	((??_ADC+0)+0),f
  2148  0543                     u3377:
  2149  0543  0BA6               	decfsz	((??_ADC+0)+0),f
  2150  0544  2D43               	goto	u3377
  2151  0545  0BA7               	decfsz	((??_ADC+0)+0+1),f
  2152  0546  2D43               	goto	u3377
  2153  0547  2D48               	nop2
  2154                           opt asmopt_on
  2155                           
  2156                           	line	314
  2157                           	
  2158  0548                     l3087:	
  2159                           ;main.c: 314: ADCON0bits.GO=1;
  2160  0548  1283               	bcf	status, 5	;RP0=0, select bank0
  2161  0549  1303               	bcf	status, 6	;RP1=0, select bank0
  2162  054A  149F               	bsf	(31),1	;volatile
  2163                           	line	315
  2164                           ;main.c: 315: while(ADCON0bits.GO)
  2165  054B  2D4C               	goto	l624
  2166                           	
  2167  054C                     l625:	
  2168                           	line	318
  2169                           ;main.c: 316: {
  2170                           ;main.c: 317: ;
  2171                           	
  2172  054C                     l624:	
  2173                           	line	315
  2174  054C  189F               	btfsc	(31),1	;volatile
  2175  054D  2D4F               	goto	u2991
  2176  054E  2D50               	goto	u2990
  2177  054F                     u2991:
  2178  054F  2D4C               	goto	l624
  2179  0550                     u2990:
  2180  0550  2D51               	goto	l3089
  2181                           	
  2182  0551                     l626:	
  2183                           	line	319
  2184                           	
  2185  0551                     l3089:	
  2186                           ;main.c: 318: }
  2187                           ;main.c: 319: return (ADRESH<<8)|ADRESL;
  2188  0551  1683               	bsf	status, 5	;RP0=1, select bank1
  2189  0552  1303               	bcf	status, 6	;RP1=0, select bank1
  2190  0553  081E               	movf	(158)^080h,w	;volatile
  2191  0554  1283               	bcf	status, 5	;RP0=0, select bank0
  2192  0555  1303               	bcf	status, 6	;RP1=0, select bank0
  2193  0556  00A6               	movwf	(??_ADC+0)+0
  2194  0557  01A7               	clrf	(??_ADC+0)+0+1
  2195  0558  081E               	movf	(30),w	;volatile
  2196  0559  00A8               	movwf	(??_ADC+2)+0
  2197  055A  01A9               	clrf	(??_ADC+2)+0+1
  2198  055B  0828               	movf	(??_ADC+2)+0,w
  2199  055C  00A9               	movwf	(??_ADC+2)+1
  2200  055D  01A8               	clrf	(??_ADC+2)+0
  2201  055E  0826               	movf	0+(??_ADC+0)+0,w
  2202  055F  0428               	iorwf	0+(??_ADC+2)+0,w
  2203  0560  00A4               	movwf	(?_ADC)
  2204  0561  0827               	movf	1+(??_ADC+0)+0,w
  2205  0562  0429               	iorwf	1+(??_ADC+2)+0,w
  2206  0563  00A5               	movwf	1+(?_ADC)
  2207  0564  2D65               	goto	l627
  2208                           	
  2209  0565                     l3091:	
  2210                           	line	320
  2211                           	
  2212  0565                     l627:	
  2213  0565  0008               	return
  2214                           	opt stack 0
  2215                           GLOBAL	__end_of_ADC
  2216  0566                     	__end_of_ADC:
  2217 ;; =============== function _ADC ends ============
  2218                           
  2219                           	signat	_ADC,4218
  2220                           	global	_wake
  2221                           psect	text342,local,class=CODE,delta=2
  2222                           global __ptext342
  2223  04B0                     __ptext342:
  2224                           
  2225 ;; *************** function _wake *****************
  2226 ;; Defined at:
  2227 ;;		line 112 in file "E:\Dropbox\socialAnalizer\Firmware\V0.23s\main.c"
  2228 ;; Parameters:    Size  Location     Type
  2229 ;;		None
  2230 ;; Auto vars:     Size  Location     Type
  2231 ;;  i               1    7[BANK0 ] unsigned char 
  2232 ;; Return value:  Size  Location     Type
  2233 ;;		None               void
  2234 ;; Registers used:
  2235 ;;		wreg, status,2, status,0
  2236 ;; Tracked objects:
  2237 ;;		On entry : 0/0
  2238 ;;		On exit  : 0/0
  2239 ;;		Unchanged: 0/0
  2240 ;; Data sizes:     COMMON   BANK0   BANK1   BANK2
  2241 ;;      Params:         0       0       0       0
  2242 ;;      Locals:         0       1       0       0
  2243 ;;      Temps:          0       3       0       0
  2244 ;;      Totals:         0       4       0       0
  2245 ;;Total ram usage:        4 bytes
  2246 ;; Hardware stack levels used:    1
  2247 ;; Hardware stack levels required when called:    3
  2248 ;; This function calls:
  2249 ;;		Nothing
  2250 ;; This function is called by:
  2251 ;;		_main
  2252 ;; This function uses a non-reentrant model
  2253 ;;
  2254                           psect	text342
  2255                           	file	"E:\Dropbox\socialAnalizer\Firmware\V0.23s\main.c"
  2256                           	line	112
  2257                           	global	__size_of_wake
  2258  0044                     	__size_of_wake	equ	__end_of_wake-_wake
  2259                           	
  2260  04B0                     _wake:	
  2261                           	opt	stack 4
  2262                           ; Regs used in _wake: [wreg+status,2+status,0]
  2263                           	line	114
  2264                           	
  2265  04B0                     l3041:	
  2266                           ;main.c: 113: char i;
  2267                           ;main.c: 114: TRISA=0b00110100;
  2268  04B0  3034               	movlw	(034h)
  2269  04B1  1683               	bsf	status, 5	;RP0=1, select bank1
  2270  04B2  1303               	bcf	status, 6	;RP1=0, select bank1
  2271  04B3  0085               	movwf	(133)^080h	;volatile
  2272                           	line	115
  2273                           ;main.c: 115: TRISC=0b00100110;
  2274  04B4  3026               	movlw	(026h)
  2275  04B5  0087               	movwf	(135)^080h	;volatile
  2276                           	line	116
  2277                           	
  2278  04B6                     l3043:	
  2279                           ;main.c: 116: PORTA=0b00000000;
  2280  04B6  1283               	bcf	status, 5	;RP0=0, select bank0
  2281  04B7  1303               	bcf	status, 6	;RP1=0, select bank0
  2282  04B8  0185               	clrf	(5)	;volatile
  2283                           	line	117
  2284                           	
  2285  04B9                     l3045:	
  2286                           ;main.c: 117: PORTC=0b00001001;
  2287  04B9  3009               	movlw	(09h)
  2288  04BA  0087               	movwf	(7)	;volatile
  2289                           	line	118
  2290                           	
  2291  04BB                     l3047:	
  2292                           ;main.c: 118: ADCON0bits.ADON=1;
  2293  04BB  141F               	bsf	(31),0	;volatile
  2294                           	line	119
  2295                           	
  2296  04BC                     l3049:	
  2297                           ;main.c: 119: RCSTAbits.CREN=1;
  2298  04BC  1617               	bsf	(23),4	;volatile
  2299                           	line	120
  2300                           	
  2301  04BD                     l3051:	
  2302                           ;main.c: 120: TXSTAbits.TXEN=1;
  2303  04BD  1696               	bsf	(22),5	;volatile
  2304                           	line	121
  2305                           	
  2306  04BE                     l3053:	
  2307                           ;main.c: 121: RCSTAbits.SPEN=1;
  2308  04BE  1797               	bsf	(23),7	;volatile
  2309                           	line	122
  2310                           	
  2311  04BF                     l3055:	
  2312                           ;main.c: 122: on=1;
  2313  04BF  147C               	bsf	(_on/8),(_on)&7
  2314                           	line	123
  2315                           	
  2316  04C0                     l3057:	
  2317                           ;main.c: 123: INTCONbits.INTE=0;
  2318  04C0  120B               	bcf	(11),4	;volatile
  2319                           	line	124
  2320                           	
  2321  04C1                     l3059:	
  2322                           ;main.c: 124: INTCONbits.T0IF=0;
  2323  04C1  110B               	bcf	(11),2	;volatile
  2324                           	line	125
  2325                           ;main.c: 125: TMR0=0x00;
  2326  04C2  0181               	clrf	(1)	;volatile
  2327                           	line	126
  2328                           	
  2329  04C3                     l3061:	
  2330                           ;main.c: 126: INTCONbits.T0IE=1;
  2331  04C3  168B               	bsf	(11),5	;volatile
  2332                           	line	127
  2333                           	
  2334  04C4                     l3063:	
  2335                           ;main.c: 127: heat=24;
  2336  04C4  3018               	movlw	(018h)
  2337  04C5  00A4               	movwf	(??_wake+0)+0
  2338  04C6  0824               	movf	(??_wake+0)+0,w
  2339  04C7  00BF               	movwf	(_heat)
  2340                           	line	128
  2341                           	
  2342  04C8                     l3065:	
  2343                           ;main.c: 128: for(i=0;i<12;i++)
  2344  04C8  01A7               	clrf	(wake@i)
  2345                           	
  2346  04C9                     l3067:	
  2347  04C9  300C               	movlw	(0Ch)
  2348  04CA  0227               	subwf	(wake@i),w
  2349  04CB  1C03               	skipc
  2350  04CC  2CCE               	goto	u2961
  2351  04CD  2CCF               	goto	u2960
  2352  04CE                     u2961:
  2353  04CE  2CD1               	goto	l3071
  2354  04CF                     u2960:
  2355  04CF  2CED               	goto	l3077
  2356                           	
  2357  04D0                     l3069:	
  2358  04D0  2CED               	goto	l3077
  2359                           	line	129
  2360                           	
  2361  04D1                     l571:	
  2362                           	line	130
  2363                           	
  2364  04D1                     l3071:	
  2365                           ;main.c: 129: {
  2366                           ;main.c: 130: _delay(2000000);
  2367                           	opt asmopt_off
  2368  04D1  300B               movlw  11
  2369  04D2  00A6               movwf	((??_wake+0)+0+2),f
  2370  04D3  3026               movlw	38
  2371  04D4  00A5               movwf	((??_wake+0)+0+1),f
  2372  04D5  3066               	movlw	102
  2373  04D6  00A4               movwf	((??_wake+0)+0),f
  2374  04D7                     u3387:
  2375  04D7  0BA4               	decfsz	((??_wake+0)+0),f
  2376  04D8  2CD7               	goto	u3387
  2377  04D9  0BA5               	decfsz	((??_wake+0)+0+1),f
  2378  04DA  2CD7               	goto	u3387
  2379  04DB  0BA6               	decfsz	((??_wake+0)+0+2),f
  2380  04DC  2CD7               	goto	u3387
  2381  04DD  2CDE               	nop2
  2382                           opt asmopt_on
  2383                           
  2384                           	line	131
  2385                           ;main.c: 131: RC0=RC0^1;
  2386  04DE  3001               	movlw	1<<((56)&7)
  2387  04DF  1283               	bcf	status, 5	;RP0=0, select bank0
  2388  04E0  1303               	bcf	status, 6	;RP1=0, select bank0
  2389  04E1  0687               	xorwf	((56)/8),f
  2390                           	line	128
  2391                           	
  2392  04E2                     l3073:	
  2393  04E2  3001               	movlw	(01h)
  2394  04E3  00A4               	movwf	(??_wake+0)+0
  2395  04E4  0824               	movf	(??_wake+0)+0,w
  2396  04E5  07A7               	addwf	(wake@i),f
  2397                           	
  2398  04E6                     l3075:	
  2399  04E6  300C               	movlw	(0Ch)
  2400  04E7  0227               	subwf	(wake@i),w
  2401  04E8  1C03               	skipc
  2402  04E9  2CEB               	goto	u2971
  2403  04EA  2CEC               	goto	u2970
  2404  04EB                     u2971:
  2405  04EB  2CD1               	goto	l3071
  2406  04EC                     u2970:
  2407  04EC  2CED               	goto	l3077
  2408                           	
  2409  04ED                     l572:	
  2410                           	line	133
  2411                           	
  2412  04ED                     l3077:	
  2413                           ;main.c: 132: }
  2414                           ;main.c: 133: heat=8;
  2415  04ED  3008               	movlw	(08h)
  2416  04EE  00A4               	movwf	(??_wake+0)+0
  2417  04EF  0824               	movf	(??_wake+0)+0,w
  2418  04F0  00BF               	movwf	(_heat)
  2419                           	line	134
  2420                           	
  2421  04F1                     l3079:	
  2422                           ;main.c: 134: INTCONbits.INTF=0;
  2423  04F1  108B               	bcf	(11),1	;volatile
  2424                           	line	135
  2425                           	
  2426  04F2                     l3081:	
  2427                           ;main.c: 135: INTCONbits.INTE=1;
  2428  04F2  160B               	bsf	(11),4	;volatile
  2429                           	line	136
  2430                           	
  2431  04F3                     l573:	
  2432  04F3  0008               	return
  2433                           	opt stack 0
  2434                           GLOBAL	__end_of_wake
  2435  04F4                     	__end_of_wake:
  2436 ;; =============== function _wake ends ============
  2437                           
  2438                           	signat	_wake,88
  2439                           	global	_sleep
  2440                           psect	text343,local,class=CODE,delta=2
  2441                           global __ptext343
  2442  05D3                     __ptext343:
  2443                           
  2444 ;; *************** function _sleep *****************
  2445 ;; Defined at:
  2446 ;;		line 90 in file "E:\Dropbox\socialAnalizer\Firmware\V0.23s\main.c"
  2447 ;; Parameters:    Size  Location     Type
  2448 ;;		None
  2449 ;; Auto vars:     Size  Location     Type
  2450 ;;		None
  2451 ;; Return value:  Size  Location     Type
  2452 ;;		None               void
  2453 ;; Registers used:
  2454 ;;		wreg, status,2
  2455 ;; Tracked objects:
  2456 ;;		On entry : 0/0
  2457 ;;		On exit  : 0/0
  2458 ;;		Unchanged: 0/0
  2459 ;; Data sizes:     COMMON   BANK0   BANK1   BANK2
  2460 ;;      Params:         0       0       0       0
  2461 ;;      Locals:         0       0       0       0
  2462 ;;      Temps:          0       0       0       0
  2463 ;;      Totals:         0       0       0       0
  2464 ;;Total ram usage:        0 bytes
  2465 ;; Hardware stack levels used:    1
  2466 ;; Hardware stack levels required when called:    3
  2467 ;; This function calls:
  2468 ;;		Nothing
  2469 ;; This function is called by:
  2470 ;;		_main
  2471 ;; This function uses a non-reentrant model
  2472 ;;
  2473                           psect	text343
  2474                           	file	"E:\Dropbox\socialAnalizer\Firmware\V0.23s\main.c"
  2475                           	line	90
  2476                           	global	__size_of_sleep
  2477  001C                     	__size_of_sleep	equ	__end_of_sleep-_sleep
  2478                           	
  2479  05D3                     _sleep:	
  2480                           	opt	stack 4
  2481                           ; Regs used in _sleep: [wreg+status,2]
  2482                           	line	91
  2483                           	
  2484  05D3                     l3021:	
  2485                           ;main.c: 91: INTCONbits.T0IE=0;
  2486  05D3  128B               	bcf	(11),5	;volatile
  2487                           	line	92
  2488                           ;main.c: 92: ADCON0bits.ADON=0;
  2489  05D4  1283               	bcf	status, 5	;RP0=0, select bank0
  2490  05D5  1303               	bcf	status, 6	;RP1=0, select bank0
  2491  05D6  101F               	bcf	(31),0	;volatile
  2492                           	line	93
  2493                           ;main.c: 93: RCSTAbits.CREN=0;
  2494  05D7  1217               	bcf	(23),4	;volatile
  2495                           	line	94
  2496                           ;main.c: 94: TXSTAbits.TXEN=0;
  2497  05D8  1296               	bcf	(22),5	;volatile
  2498                           	line	95
  2499                           ;main.c: 95: RCSTAbits.SPEN=0;
  2500  05D9  1397               	bcf	(23),7	;volatile
  2501                           	line	96
  2502                           ;main.c: 96: heat=0;
  2503  05DA  01BF               	clrf	(_heat)
  2504                           	line	97
  2505                           ;main.c: 97: RC3=1;
  2506  05DB  1587               	bsf	(59/8),(59)&7
  2507                           	line	98
  2508                           ;main.c: 98: RA0=1;
  2509  05DC  1405               	bsf	(40/8),(40)&7
  2510                           	line	99
  2511                           ;main.c: 99: on=0;
  2512  05DD  107C               	bcf	(_on/8),(_on)&7
  2513                           	line	100
  2514                           	
  2515  05DE                     l3023:	
  2516                           ;main.c: 100: TRISA=0b00110100;
  2517  05DE  3034               	movlw	(034h)
  2518  05DF  1683               	bsf	status, 5	;RP0=1, select bank1
  2519  05E0  1303               	bcf	status, 6	;RP1=0, select bank1
  2520  05E1  0085               	movwf	(133)^080h	;volatile
  2521                           	line	101
  2522                           	
  2523  05E2                     l3025:	
  2524                           ;main.c: 101: TRISC=0b00000000;
  2525  05E2  0187               	clrf	(135)^080h	;volatile
  2526                           	line	102
  2527                           	
  2528  05E3                     l3027:	
  2529                           ;main.c: 102: PORTA=0b00001011;
  2530  05E3  300B               	movlw	(0Bh)
  2531  05E4  1283               	bcf	status, 5	;RP0=0, select bank0
  2532  05E5  1303               	bcf	status, 6	;RP1=0, select bank0
  2533  05E6  0085               	movwf	(5)	;volatile
  2534                           	line	103
  2535                           	
  2536  05E7                     l3029:	
  2537                           ;main.c: 103: PORTC=0b11111110;
  2538  05E7  30FE               	movlw	(0FEh)
  2539  05E8  0087               	movwf	(7)	;volatile
  2540                           	line	104
  2541                           	
  2542  05E9                     l3031:	
  2543                           ;main.c: 104: INTCONbits.INTF=0;
  2544  05E9  108B               	bcf	(11),1	;volatile
  2545                           	line	105
  2546                           	
  2547  05EA                     l3033:	
  2548                           ;main.c: 105: INTCONbits.INTE=1;
  2549  05EA  160B               	bsf	(11),4	;volatile
  2550                           	line	106
  2551                           	
  2552  05EB                     l3035:	
  2553                           # 106 "E:\Dropbox\socialAnalizer\Firmware\V0.23s\main.c"
  2554  05EB  0063               sleep ;#
  2555                           psect	text343
  2556                           	line	107
  2557                           	
  2558  05EC                     l3037:	
  2559                           ;main.c: 107: _nop();
  2560  05EC  0000               	nop
  2561  05ED  2DEE               	goto	l568
  2562                           	line	108
  2563                           	
  2564  05EE                     l3039:	
  2565                           	line	109
  2566                           ;main.c: 108: return;
  2567                           	
  2568  05EE                     l568:	
  2569  05EE  0008               	return
  2570                           	opt stack 0
  2571                           GLOBAL	__end_of_sleep
  2572  05EF                     	__end_of_sleep:
  2573 ;; =============== function _sleep ends ============
  2574                           
  2575                           	signat	_sleep,88
  2576                           	global	_initPIC
  2577                           psect	text344,local,class=CODE,delta=2
  2578                           global __ptext344
  2579  04F4                     __ptext344:
  2580                           
  2581 ;; *************** function _initPIC *****************
  2582 ;; Defined at:
  2583 ;;		line 65 in file "E:\Dropbox\socialAnalizer\Firmware\V0.23s\main.c"
  2584 ;; Parameters:    Size  Location     Type
  2585 ;;		None
  2586 ;; Auto vars:     Size  Location     Type
  2587 ;;		None
  2588 ;; Return value:  Size  Location     Type
  2589 ;;		None               void
  2590 ;; Registers used:
  2591 ;;		wreg, status,2
  2592 ;; Tracked objects:
  2593 ;;		On entry : 0/0
  2594 ;;		On exit  : 0/0
  2595 ;;		Unchanged: 0/0
  2596 ;; Data sizes:     COMMON   BANK0   BANK1   BANK2
  2597 ;;      Params:         0       0       0       0
  2598 ;;      Locals:         0       0       0       0
  2599 ;;      Temps:          0       3       0       0
  2600 ;;      Totals:         0       3       0       0
  2601 ;;Total ram usage:        3 bytes
  2602 ;; Hardware stack levels used:    1
  2603 ;; Hardware stack levels required when called:    3
  2604 ;; This function calls:
  2605 ;;		Nothing
  2606 ;; This function is called by:
  2607 ;;		_main
  2608 ;; This function uses a non-reentrant model
  2609 ;;
  2610                           psect	text344
  2611                           	file	"E:\Dropbox\socialAnalizer\Firmware\V0.23s\main.c"
  2612                           	line	65
  2613                           	global	__size_of_initPIC
  2614  003C                     	__size_of_initPIC	equ	__end_of_initPIC-_initPIC
  2615                           	
  2616  04F4                     _initPIC:	
  2617                           	opt	stack 4
  2618                           ; Regs used in _initPIC: [wreg+status,2]
  2619                           	line	66
  2620                           	
  2621  04F4                     l2993:	
  2622                           ;main.c: 66: TRISA=0b00110100;
  2623  04F4  3034               	movlw	(034h)
  2624  04F5  1683               	bsf	status, 5	;RP0=1, select bank1
  2625  04F6  1303               	bcf	status, 6	;RP1=0, select bank1
  2626  04F7  0085               	movwf	(133)^080h	;volatile
  2627                           	line	67
  2628                           ;main.c: 67: TRISC=0b00100110;
  2629  04F8  3026               	movlw	(026h)
  2630  04F9  0087               	movwf	(135)^080h	;volatile
  2631                           	line	68
  2632                           ;main.c: 68: PORTA=0b00000001;
  2633  04FA  3001               	movlw	(01h)
  2634  04FB  1283               	bcf	status, 5	;RP0=0, select bank0
  2635  04FC  1303               	bcf	status, 6	;RP1=0, select bank0
  2636  04FD  0085               	movwf	(5)	;volatile
  2637                           	line	69
  2638                           ;main.c: 69: PORTC=0b00001001;
  2639  04FE  3009               	movlw	(09h)
  2640  04FF  0087               	movwf	(7)	;volatile
  2641                           	line	70
  2642                           ;main.c: 70: OSCCON=0b01110111;
  2643  0500  3077               	movlw	(077h)
  2644  0501  1683               	bsf	status, 5	;RP0=1, select bank1
  2645  0502  1303               	bcf	status, 6	;RP1=0, select bank1
  2646  0503  008F               	movwf	(143)^080h	;volatile
  2647                           	line	71
  2648                           ;main.c: 71: ANSEL=0b01100000;
  2649  0504  3060               	movlw	(060h)
  2650  0505  0091               	movwf	(145)^080h	;volatile
  2651                           	line	72
  2652                           ;main.c: 72: ADCON1=0b01100000;
  2653  0506  3060               	movlw	(060h)
  2654  0507  009F               	movwf	(159)^080h	;volatile
  2655                           	line	73
  2656                           ;main.c: 73: TXSTA=0b00000100;
  2657  0508  3004               	movlw	(04h)
  2658  0509  1283               	bcf	status, 5	;RP0=0, select bank0
  2659  050A  1303               	bcf	status, 6	;RP1=0, select bank0
  2660  050B  0096               	movwf	(22)	;volatile
  2661                           	line	74
  2662                           	
  2663  050C                     l2995:	
  2664                           ;main.c: 74: RCSTA=0b00000000;
  2665  050C  0197               	clrf	(23)	;volatile
  2666                           	line	75
  2667                           	
  2668  050D                     l2997:	
  2669                           ;main.c: 75: BAUDCTL=0b00001000;
  2670  050D  3008               	movlw	(08h)
  2671  050E  0091               	movwf	(17)	;volatile
  2672                           	line	76
  2673                           	
  2674  050F                     l2999:	
  2675                           ;main.c: 76: SPBRG=207;
  2676  050F  30CF               	movlw	(0CFh)
  2677  0510  0093               	movwf	(19)	;volatile
  2678                           	line	77
  2679                           	
  2680  0511                     l3001:	
  2681                           ;main.c: 77: OPTION_REG=0b00000000;
  2682  0511  1683               	bsf	status, 5	;RP0=1, select bank1
  2683  0512  1303               	bcf	status, 6	;RP1=0, select bank1
  2684  0513  0181               	clrf	(129)^080h	;volatile
  2685                           	line	78
  2686                           	
  2687  0514                     l3003:	
  2688                           ;main.c: 78: WPUAbits.WPUA2=1;
  2689  0514  1515               	bsf	(149)^080h,2	;volatile
  2690                           	line	79
  2691                           	
  2692  0515                     l3005:	
  2693                           ;main.c: 79: EECON1=0x00;
  2694  0515  019C               	clrf	(156)^080h	;volatile
  2695                           	line	80
  2696                           	
  2697  0516                     l3007:	
  2698                           ;main.c: 80: sw=0;
  2699  0516  01E8               	clrf	(_sw)^080h
  2700                           	line	81
  2701                           	
  2702  0517                     l3009:	
  2703                           ;main.c: 81: on=0;
  2704  0517  107C               	bcf	(_on/8),(_on)&7
  2705                           	line	82
  2706                           	
  2707  0518                     l3011:	
  2708                           ;main.c: 82: heat=0;
  2709  0518  1283               	bcf	status, 5	;RP0=0, select bank0
  2710  0519  1303               	bcf	status, 6	;RP1=0, select bank0
  2711  051A  01BF               	clrf	(_heat)
  2712                           	line	83
  2713                           	
  2714  051B                     l3013:	
  2715                           ;main.c: 83: _delay(2000000);
  2716                           	opt asmopt_off
  2717  051B  300B               movlw  11
  2718  051C  00A6               movwf	((??_initPIC+0)+0+2),f
  2719  051D  3026               movlw	38
  2720  051E  00A5               movwf	((??_initPIC+0)+0+1),f
  2721  051F  3066               	movlw	102
  2722  0520  00A4               movwf	((??_initPIC+0)+0),f
  2723  0521                     u3397:
  2724  0521  0BA4               	decfsz	((??_initPIC+0)+0),f
  2725  0522  2D21               	goto	u3397
  2726  0523  0BA5               	decfsz	((??_initPIC+0)+0+1),f
  2727  0524  2D21               	goto	u3397
  2728  0525  0BA6               	decfsz	((??_initPIC+0)+0+2),f
  2729  0526  2D21               	goto	u3397
  2730  0527  2D28               	nop2
  2731                           opt asmopt_on
  2732                           
  2733                           	line	84
  2734                           	
  2735  0528                     l3015:	
  2736                           ;main.c: 84: INTCON=0b10110000;
  2737  0528  30B0               	movlw	(0B0h)
  2738  0529  008B               	movwf	(11)	;volatile
  2739                           	line	85
  2740                           	
  2741  052A                     l3017:	
  2742                           ;main.c: 85: CMCON0=0xFF;
  2743  052A  30FF               	movlw	(0FFh)
  2744  052B  1283               	bcf	status, 5	;RP0=0, select bank0
  2745  052C  1303               	bcf	status, 6	;RP1=0, select bank0
  2746  052D  0099               	movwf	(25)	;volatile
  2747                           	line	86
  2748                           	
  2749  052E                     l3019:	
  2750                           ;main.c: 86: INTCONbits.PEIE=1;
  2751  052E  170B               	bsf	(11),6	;volatile
  2752                           	line	87
  2753                           	
  2754  052F                     l565:	
  2755  052F  0008               	return
  2756                           	opt stack 0
  2757                           GLOBAL	__end_of_initPIC
  2758  0530                     	__end_of_initPIC:
  2759 ;; =============== function _initPIC ends ============
  2760                           
  2761                           	signat	_initPIC,88
  2762                           	global	___lwdiv
  2763                           psect	text345,local,class=CODE,delta=2
  2764                           global __ptext345
  2765  0460                     __ptext345:
  2766                           
  2767 ;; *************** function ___lwdiv *****************
  2768 ;; Defined at:
  2769 ;;		line 5 in file "C:\Program Files (x86)\HI-TECH Software\PICC\9.83\sources\lwdiv.c"
  2770 ;; Parameters:    Size  Location     Type
  2771 ;;  divisor         2    4[BANK0 ] unsigned int 
  2772 ;;  dividend        2    6[BANK0 ] unsigned int 
  2773 ;; Auto vars:     Size  Location     Type
  2774 ;;  quotient        2    9[BANK0 ] unsigned int 
  2775 ;;  counter         1   11[BANK0 ] unsigned char 
  2776 ;; Return value:  Size  Location     Type
  2777 ;;                  2    4[BANK0 ] unsigned int 
  2778 ;; Registers used:
  2779 ;;		wreg, status,2, status,0
  2780 ;; Tracked objects:
  2781 ;;		On entry : 0/0
  2782 ;;		On exit  : 0/0
  2783 ;;		Unchanged: 0/0
  2784 ;; Data sizes:     COMMON   BANK0   BANK1   BANK2
  2785 ;;      Params:         0       4       0       0
  2786 ;;      Locals:         0       3       0       0
  2787 ;;      Temps:          0       1       0       0
  2788 ;;      Totals:         0       8       0       0
  2789 ;;Total ram usage:        8 bytes
  2790 ;; Hardware stack levels used:    1
  2791 ;; Hardware stack levels required when called:    3
  2792 ;; This function calls:
  2793 ;;		Nothing
  2794 ;; This function is called by:
  2795 ;;		_promilage
  2796 ;; This function uses a non-reentrant model
  2797 ;;
  2798                           psect	text345
  2799                           	file	"C:\Program Files (x86)\HI-TECH Software\PICC\9.83\sources\lwdiv.c"
  2800                           	line	5
  2801                           	global	__size_of___lwdiv
  2802  0050                     	__size_of___lwdiv	equ	__end_of___lwdiv-___lwdiv
  2803                           	
  2804  0460                     ___lwdiv:	
  2805                           	opt	stack 2
  2806                           ; Regs used in ___lwdiv: [wreg+status,2+status,0]
  2807                           	line	9
  2808                           	
  2809  0460                     l2967:	
  2810  0460  1283               	bcf	status, 5	;RP0=0, select bank0
  2811  0461  1303               	bcf	status, 6	;RP1=0, select bank0
  2812  0462  01A9               	clrf	(___lwdiv@quotient)
  2813  0463  01AA               	clrf	(___lwdiv@quotient+1)
  2814                           	line	10
  2815                           	
  2816  0464                     l2969:	
  2817  0464  0825               	movf	(___lwdiv@divisor+1),w
  2818  0465  0424               	iorwf	(___lwdiv@divisor),w
  2819  0466  1903               	skipnz
  2820  0467  2C69               	goto	u2891
  2821  0468  2C6A               	goto	u2890
  2822  0469                     u2891:
  2823  0469  2CA8               	goto	l2989
  2824  046A                     u2890:
  2825                           	line	11
  2826                           	
  2827  046A                     l2971:	
  2828  046A  01AB               	clrf	(___lwdiv@counter)
  2829  046B  1403               	bsf	status,0
  2830  046C  0DAB               	rlf	(___lwdiv@counter),f
  2831                           	line	12
  2832  046D  2C7A               	goto	l2977
  2833                           	
  2834  046E                     l1205:	
  2835                           	line	13
  2836                           	
  2837  046E                     l2973:	
  2838  046E  3001               	movlw	01h
  2839                           	
  2840  046F                     u2905:
  2841  046F  1003               	clrc
  2842  0470  0DA4               	rlf	(___lwdiv@divisor),f
  2843  0471  0DA5               	rlf	(___lwdiv@divisor+1),f
  2844  0472  3EFF               	addlw	-1
  2845  0473  1D03               	skipz
  2846  0474  2C6F               	goto	u2905
  2847                           	line	14
  2848                           	
  2849  0475                     l2975:	
  2850  0475  3001               	movlw	(01h)
  2851  0476  00A8               	movwf	(??___lwdiv+0)+0
  2852  0477  0828               	movf	(??___lwdiv+0)+0,w
  2853  0478  07AB               	addwf	(___lwdiv@counter),f
  2854  0479  2C7A               	goto	l2977
  2855                           	line	15
  2856                           	
  2857  047A                     l1204:	
  2858                           	line	12
  2859                           	
  2860  047A                     l2977:	
  2861  047A  1FA5               	btfss	(___lwdiv@divisor+1),(15)&7
  2862  047B  2C7D               	goto	u2911
  2863  047C  2C7E               	goto	u2910
  2864  047D                     u2911:
  2865  047D  2C6E               	goto	l2973
  2866  047E                     u2910:
  2867  047E  2C80               	goto	l2979
  2868                           	
  2869  047F                     l1206:	
  2870  047F  2C80               	goto	l2979
  2871                           	line	16
  2872                           	
  2873  0480                     l1207:	
  2874                           	line	17
  2875                           	
  2876  0480                     l2979:	
  2877  0480  3001               	movlw	01h
  2878                           	
  2879  0481                     u2925:
  2880  0481  1003               	clrc
  2881  0482  0DA9               	rlf	(___lwdiv@quotient),f
  2882  0483  0DAA               	rlf	(___lwdiv@quotient+1),f
  2883  0484  3EFF               	addlw	-1
  2884  0485  1D03               	skipz
  2885  0486  2C81               	goto	u2925
  2886                           	line	18
  2887  0487  0825               	movf	(___lwdiv@divisor+1),w
  2888  0488  0227               	subwf	(___lwdiv@dividend+1),w
  2889  0489  1D03               	skipz
  2890  048A  2C8D               	goto	u2935
  2891  048B  0824               	movf	(___lwdiv@divisor),w
  2892  048C  0226               	subwf	(___lwdiv@dividend),w
  2893  048D                     u2935:
  2894  048D  1C03               	skipc
  2895  048E  2C90               	goto	u2931
  2896  048F  2C91               	goto	u2930
  2897  0490                     u2931:
  2898  0490  2C99               	goto	l2985
  2899  0491                     u2930:
  2900                           	line	19
  2901                           	
  2902  0491                     l2981:	
  2903  0491  0824               	movf	(___lwdiv@divisor),w
  2904  0492  02A6               	subwf	(___lwdiv@dividend),f
  2905  0493  0825               	movf	(___lwdiv@divisor+1),w
  2906  0494  1C03               	skipc
  2907  0495  03A7               	decf	(___lwdiv@dividend+1),f
  2908  0496  02A7               	subwf	(___lwdiv@dividend+1),f
  2909                           	line	20
  2910                           	
  2911  0497                     l2983:	
  2912  0497  1429               	bsf	(___lwdiv@quotient)+(0/8),(0)&7
  2913  0498  2C99               	goto	l2985
  2914                           	line	21
  2915                           	
  2916  0499                     l1208:	
  2917                           	line	22
  2918                           	
  2919  0499                     l2985:	
  2920  0499  3001               	movlw	01h
  2921                           	
  2922  049A                     u2945:
  2923  049A  1003               	clrc
  2924  049B  0CA5               	rrf	(___lwdiv@divisor+1),f
  2925  049C  0CA4               	rrf	(___lwdiv@divisor),f
  2926  049D  3EFF               	addlw	-1
  2927  049E  1D03               	skipz
  2928  049F  2C9A               	goto	u2945
  2929                           	line	23
  2930                           	
  2931  04A0                     l2987:	
  2932  04A0  3001               	movlw	low(01h)
  2933  04A1  02AB               	subwf	(___lwdiv@counter),f
  2934  04A2  1D03               	btfss	status,2
  2935  04A3  2CA5               	goto	u2951
  2936  04A4  2CA6               	goto	u2950
  2937  04A5                     u2951:
  2938  04A5  2C80               	goto	l2979
  2939  04A6                     u2950:
  2940  04A6  2CA8               	goto	l2989
  2941                           	
  2942  04A7                     l1209:	
  2943  04A7  2CA8               	goto	l2989
  2944                           	line	24
  2945                           	
  2946  04A8                     l1203:	
  2947                           	line	25
  2948                           	
  2949  04A8                     l2989:	
  2950  04A8  082A               	movf	(___lwdiv@quotient+1),w
  2951  04A9  01A5               	clrf	(?___lwdiv+1)
  2952  04AA  07A5               	addwf	(?___lwdiv+1)
  2953  04AB  0829               	movf	(___lwdiv@quotient),w
  2954  04AC  01A4               	clrf	(?___lwdiv)
  2955  04AD  07A4               	addwf	(?___lwdiv)
  2956                           
  2957  04AE  2CAF               	goto	l1210
  2958                           	
  2959  04AF                     l2991:	
  2960                           	line	26
  2961                           	
  2962  04AF                     l1210:	
  2963  04AF  0008               	return
  2964                           	opt stack 0
  2965                           GLOBAL	__end_of___lwdiv
  2966  04B0                     	__end_of___lwdiv:
  2967 ;; =============== function ___lwdiv ends ============
  2968                           
  2969                           	signat	___lwdiv,8314
  2970                           	global	_send
  2971                           psect	text346,local,class=CODE,delta=2
  2972                           global __ptext346
  2973  0594                     __ptext346:
  2974                           
  2975 ;; *************** function _send *****************
  2976 ;; Defined at:
  2977 ;;		line 323 in file "E:\Dropbox\socialAnalizer\Firmware\V0.23s\main.c"
  2978 ;; Parameters:    Size  Location     Type
  2979 ;;  data            1    wreg     unsigned char 
  2980 ;; Auto vars:     Size  Location     Type
  2981 ;;  data            1    4[BANK0 ] unsigned char 
  2982 ;;  i               2    5[BANK0 ] int 
  2983 ;; Return value:  Size  Location     Type
  2984 ;;		None               void
  2985 ;; Registers used:
  2986 ;;		wreg, status,2
  2987 ;; Tracked objects:
  2988 ;;		On entry : 0/0
  2989 ;;		On exit  : 0/0
  2990 ;;		Unchanged: 0/0
  2991 ;; Data sizes:     COMMON   BANK0   BANK1   BANK2
  2992 ;;      Params:         0       0       0       0
  2993 ;;      Locals:         0       3       0       0
  2994 ;;      Temps:          0       0       0       0
  2995 ;;      Totals:         0       3       0       0
  2996 ;;Total ram usage:        3 bytes
  2997 ;; Hardware stack levels used:    1
  2998 ;; Hardware stack levels required when called:    3
  2999 ;; This function calls:
  3000 ;;		Nothing
  3001 ;; This function is called by:
  3002 ;;		_measure
  3003 ;;		_battery
  3004 ;; This function uses a non-reentrant model
  3005 ;;
  3006                           psect	text346
  3007                           	file	"E:\Dropbox\socialAnalizer\Firmware\V0.23s\main.c"
  3008                           	line	323
  3009                           	global	__size_of_send
  3010  0022                     	__size_of_send	equ	__end_of_send-_send
  3011                           	
  3012  0594                     _send:	
  3013                           	opt	stack 2
  3014                           ; Regs used in _send: [wreg+status,2]
  3015                           ;send@data stored from wreg
  3016                           	line	325
  3017  0594  1283               	bcf	status, 5	;RP0=0, select bank0
  3018  0595  1303               	bcf	status, 6	;RP1=0, select bank0
  3019  0596  00A4               	movwf	(send@data)
  3020                           	
  3021  0597                     l2949:	
  3022                           ;main.c: 324: int i;
  3023                           ;main.c: 325: for(i=0;TXSTAbits.TRMT==0;i++)
  3024  0597  01A5               	clrf	(send@i)
  3025  0598  01A6               	clrf	(send@i+1)
  3026  0599  2DAD               	goto	l2957
  3027                           	line	326
  3028                           	
  3029  059A                     l631:	
  3030                           	line	327
  3031                           	
  3032  059A                     l2951:	
  3033                           ;main.c: 326: {
  3034                           ;main.c: 327: if(i==5000)
  3035  059A  3013               	movlw	high(01388h)
  3036  059B  0626               	xorwf	(send@i+1),w
  3037  059C  1D03               	skipz
  3038  059D  2DA0               	goto	u2865
  3039  059E  3088               	movlw	low(01388h)
  3040  059F  0625               	xorwf	(send@i),w
  3041  05A0                     u2865:
  3042                           
  3043  05A0  1D03               	skipz
  3044  05A1  2DA3               	goto	u2861
  3045  05A2  2DA4               	goto	u2860
  3046  05A3                     u2861:
  3047  05A3  2DA6               	goto	l2955
  3048  05A4                     u2860:
  3049  05A4  2DB5               	goto	l633
  3050                           	line	328
  3051                           	
  3052  05A5                     l2953:	
  3053                           ;main.c: 328: return 0;
  3054                           ;	Return value of _send is never used
  3055  05A5  2DB5               	goto	l633
  3056                           	
  3057  05A6                     l632:	
  3058                           	line	325
  3059                           	
  3060  05A6                     l2955:	
  3061  05A6  3001               	movlw	low(01h)
  3062  05A7  07A5               	addwf	(send@i),f
  3063  05A8  1803               	skipnc
  3064  05A9  0AA6               	incf	(send@i+1),f
  3065  05AA  3000               	movlw	high(01h)
  3066  05AB  07A6               	addwf	(send@i+1),f
  3067  05AC  2DAD               	goto	l2957
  3068                           	
  3069  05AD                     l630:	
  3070                           	
  3071  05AD                     l2957:	
  3072  05AD  1C96               	btfss	(22),1	;volatile
  3073  05AE  2DB0               	goto	u2871
  3074  05AF  2DB1               	goto	u2870
  3075  05B0                     u2871:
  3076  05B0  2D9A               	goto	l2951
  3077  05B1                     u2870:
  3078  05B1  2DB2               	goto	l2959
  3079                           	
  3080  05B2                     l634:	
  3081                           	line	330
  3082                           	
  3083  05B2                     l2959:	
  3084                           ;main.c: 329: }
  3085                           ;main.c: 330: TXREG=data;
  3086  05B2  0824               	movf	(send@data),w
  3087  05B3  0095               	movwf	(21)	;volatile
  3088  05B4  2DB5               	goto	l633
  3089                           	line	331
  3090                           	
  3091  05B5                     l2961:	
  3092                           	line	332
  3093                           ;main.c: 331: return 1;
  3094                           ;	Return value of _send is never used
  3095                           	
  3096  05B5                     l633:	
  3097  05B5  0008               	return
  3098                           	opt stack 0
  3099                           GLOBAL	__end_of_send
  3100  05B6                     	__end_of_send:
  3101 ;; =============== function _send ends ============
  3102                           
  3103                           	signat	_send,4216
  3104                           	global	_isr
  3105                           psect	text347,local,class=CODE,delta=2
  3106                           global __ptext347
  3107  0013                     __ptext347:
  3108                           
  3109 ;; *************** function _isr *****************
  3110 ;; Defined at:
  3111 ;;		line 139 in file "E:\Dropbox\socialAnalizer\Firmware\V0.23s\main.c"
  3112 ;; Parameters:    Size  Location     Type
  3113 ;;		None
  3114 ;; Auto vars:     Size  Location     Type
  3115 ;;  count           4    0[BANK0 ] unsigned long 
  3116 ;; Return value:  Size  Location     Type
  3117 ;;		None               void
  3118 ;; Registers used:
  3119 ;;		wreg, fsr0l, fsr0h, fsr1l, fsr1h, status,2, status,0, btemp+1, pclath, cstack
  3120 ;; Tracked objects:
  3121 ;;		On entry : 0/0
  3122 ;;		On exit  : 0/0
  3123 ;;		Unchanged: 0/0
  3124 ;; Data sizes:     COMMON   BANK0   BANK1   BANK2
  3125 ;;      Params:         0       0       0       0
  3126 ;;      Locals:         0       4       0       0
  3127 ;;      Temps:          7       0       0       0
  3128 ;;      Totals:         7       4       0       0
  3129 ;;Total ram usage:       11 bytes
  3130 ;; Hardware stack levels used:    1
  3131 ;; Hardware stack levels required when called:    2
  3132 ;; This function calls:
  3133 ;;		_printf
  3134 ;; This function is called by:
  3135 ;;		Interrupt level 1
  3136 ;; This function uses a non-reentrant model
  3137 ;;
  3138                           psect	text347
  3139                           	file	"E:\Dropbox\socialAnalizer\Firmware\V0.23s\main.c"
  3140                           	line	139
  3141                           	global	__size_of_isr
  3142  0119                     	__size_of_isr	equ	__end_of_isr-_isr
  3143                           	
  3144  0013                     _isr:	
  3145                           	opt	stack 2
  3146                           ; Regs used in _isr: [allreg]
  3147                           psect	intentry,class=CODE,delta=2
  3148                           global __pintentry
  3149  0004                     __pintentry:
  3150                           global interrupt_function
  3151  0004                     interrupt_function:
  3152                           	global saved_w
  3153  007E                     	saved_w	set	btemp+0
  3154  0004  00FE               	movwf	saved_w
  3155  0005  0E03               	swapf	status,w
  3156  0006  00F8               	movwf	(??_isr+3)
  3157  0007  0804               	movf	fsr0,w
  3158  0008  00F9               	movwf	(??_isr+4)
  3159  0009  080A               	movf	pclath,w
  3160  000A  00FA               	movwf	(??_isr+5)
  3161  000B  1283               	bcf	status, 5	;RP0=0, select bank0
  3162  000C  1303               	bcf	status, 6	;RP1=0, select bank0
  3163  000D  087F               	movf	btemp+1,w
  3164  000E  00FB               	movwf	(??_isr+6)
  3165  000F  118A  2813         	ljmp	_isr
  3166                           psect	text347
  3167                           	line	141
  3168                           	
  3169  0013                     i1l2853:	
  3170                           ;main.c: 140: long unsigned int count;
  3171                           ;main.c: 141: INTCONbits.GIE=0;
  3172  0013  138B               	bcf	(11),7	;volatile
  3173                           	line	142
  3174                           ;main.c: 142: INTCONbits.PEIE=0;
  3175  0014  130B               	bcf	(11),6	;volatile
  3176                           	line	143
  3177                           ;main.c: 143: if(INTCONbits.T0IF&&INTCONbits.T0IE)
  3178  0015  1D0B               	btfss	(11),2	;volatile
  3179  0016  2818               	goto	u274_21
  3180  0017  2819               	goto	u274_20
  3181  0018                     u274_21:
  3182  0018  2836               	goto	i1l576
  3183  0019                     u274_20:
  3184                           	
  3185  0019                     i1l2855:	
  3186  0019  1E8B               	btfss	(11),5	;volatile
  3187  001A  281C               	goto	u275_21
  3188  001B  281D               	goto	u275_20
  3189  001C                     u275_21:
  3190  001C  2836               	goto	i1l576
  3191  001D                     u275_20:
  3192                           	line	145
  3193                           	
  3194  001D                     i1l2857:	
  3195                           ;main.c: 144: {
  3196                           ;main.c: 145: INTCONbits.T0IF=0;
  3197  001D  110B               	bcf	(11),2	;volatile
  3198                           	line	146
  3199                           	
  3200  001E                     i1l2859:	
  3201                           ;main.c: 146: TMR0=0x00;
  3202  001E  0181               	clrf	(1)	;volatile
  3203                           	line	147
  3204                           	
  3205  001F                     i1l2861:	
  3206                           ;main.c: 147: if(heat_ref<heat)
  3207  001F  083F               	movf	(_heat),w
  3208  0020  0240               	subwf	(_heat_ref),w
  3209  0021  1803               	skipnc
  3210  0022  2824               	goto	u276_21
  3211  0023  2825               	goto	u276_20
  3212  0024                     u276_21:
  3213  0024  2827               	goto	i1l577
  3214  0025                     u276_20:
  3215                           	line	148
  3216                           	
  3217  0025                     i1l2863:	
  3218                           ;main.c: 148: RC3=0;
  3219  0025  1187               	bcf	(59/8),(59)&7
  3220  0026  2829               	goto	i1l2865
  3221                           	line	149
  3222                           	
  3223  0027                     i1l577:	
  3224                           	line	150
  3225                           ;main.c: 149: else
  3226                           ;main.c: 150: RC3=1;
  3227  0027  1587               	bsf	(59/8),(59)&7
  3228  0028  2829               	goto	i1l2865
  3229                           	
  3230  0029                     i1l578:	
  3231                           	line	151
  3232                           	
  3233  0029                     i1l2865:	
  3234                           ;main.c: 151: heat_ref++;
  3235  0029  3001               	movlw	(01h)
  3236  002A  00F5               	movwf	(??_isr+0)+0
  3237  002B  0875               	movf	(??_isr+0)+0,w
  3238  002C  07C0               	addwf	(_heat_ref),f
  3239                           	line	152
  3240                           	
  3241  002D                     i1l2867:	
  3242                           ;main.c: 152: if(heat_ref>25)
  3243  002D  301A               	movlw	(01Ah)
  3244  002E  0240               	subwf	(_heat_ref),w
  3245  002F  1C03               	skipc
  3246  0030  2832               	goto	u277_21
  3247  0031  2833               	goto	u277_20
  3248  0032                     u277_21:
  3249  0032  291D               	goto	i1l2939
  3250  0033                     u277_20:
  3251                           	line	153
  3252                           	
  3253  0033                     i1l2869:	
  3254                           ;main.c: 153: heat_ref=0;
  3255  0033  01C0               	clrf	(_heat_ref)
  3256  0034  291D               	goto	i1l2939
  3257                           	
  3258  0035                     i1l579:	
  3259                           	line	154
  3260                           ;main.c: 154: }
  3261  0035  291D               	goto	i1l2939
  3262                           	line	155
  3263                           	
  3264  0036                     i1l576:	
  3265                           ;main.c: 155: else if(INTCONbits.INTF)
  3266  0036  1C8B               	btfss	(11),1	;volatile
  3267  0037  2839               	goto	u278_21
  3268  0038  283A               	goto	u278_20
  3269  0039                     u278_21:
  3270  0039  291D               	goto	i1l2939
  3271  003A                     u278_20:
  3272                           	line	157
  3273                           	
  3274  003A                     i1l2871:	
  3275                           ;main.c: 156: {
  3276                           ;main.c: 157: INTCONbits.INTF=0;
  3277  003A  108B               	bcf	(11),1	;volatile
  3278                           	line	158
  3279                           ;main.c: 158: RC3=1;
  3280  003B  1587               	bsf	(59/8),(59)&7
  3281                           	line	159
  3282                           	
  3283  003C                     i1l2873:	
  3284                           ;main.c: 159: _delay(2000000/5);
  3285                           	opt asmopt_off
  3286  003C  3003               movlw  3
  3287  003D  00F7               movwf	((??_isr+0)+0+2),f
  3288  003E  3008               movlw	8
  3289  003F  00F6               movwf	((??_isr+0)+0+1),f
  3290  0040  3078               	movlw	120
  3291  0041  00F5               movwf	((??_isr+0)+0),f
  3292  0042                     u340_27:
  3293  0042  0BF5               	decfsz	((??_isr+0)+0),f
  3294  0043  2842               	goto	u340_27
  3295  0044  0BF6               	decfsz	((??_isr+0)+0+1),f
  3296  0045  2842               	goto	u340_27
  3297  0046  0BF7               	decfsz	((??_isr+0)+0+2),f
  3298  0047  2842               	goto	u340_27
  3299                           opt asmopt_on
  3300                           
  3301                           	line	160
  3302                           ;main.c: 160: for(count=0;RA2==0||count>=40000;count++)
  3303  0048  3000               	movlw	0
  3304  0049  1283               	bcf	status, 5	;RP0=0, select bank0
  3305  004A  1303               	bcf	status, 6	;RP1=0, select bank0
  3306  004B  00A3               	movwf	(isr@count+3)
  3307  004C  3000               	movlw	0
  3308  004D  00A2               	movwf	(isr@count+2)
  3309  004E  3000               	movlw	0
  3310  004F  00A1               	movwf	(isr@count+1)
  3311  0050  3000               	movlw	0
  3312  0051  00A0               	movwf	(isr@count)
  3313                           
  3314  0052  28F4               	goto	i1l2931
  3315                           	line	161
  3316                           	
  3317  0053                     i1l583:	
  3318                           	line	162
  3319                           	
  3320  0053                     i1l2875:	
  3321                           ;main.c: 161: {
  3322                           ;main.c: 162: if(count>=40000){
  3323  0053  3000               	movlw	0
  3324  0054  0223               	subwf	(isr@count+3),w
  3325  0055  1D03               	skipz
  3326  0056  2861               	goto	u279_25
  3327  0057  3000               	movlw	0
  3328  0058  0222               	subwf	(isr@count+2),w
  3329  0059  1D03               	skipz
  3330  005A  2861               	goto	u279_25
  3331  005B  309C               	movlw	09Ch
  3332  005C  0221               	subwf	(isr@count+1),w
  3333  005D  1D03               	skipz
  3334  005E  2861               	goto	u279_25
  3335  005F  3040               	movlw	040h
  3336  0060  0220               	subwf	(isr@count),w
  3337  0061                     u279_25:
  3338  0061  1C03               	skipc
  3339  0062  2864               	goto	u279_21
  3340  0063  2865               	goto	u279_20
  3341  0064                     u279_21:
  3342  0064  2880               	goto	i1l2887
  3343  0065                     u279_20:
  3344                           	line	163
  3345                           	
  3346  0065                     i1l2877:	
  3347                           ;main.c: 163: sw=0;
  3348  0065  1683               	bsf	status, 5	;RP0=1, select bank1
  3349  0066  1303               	bcf	status, 6	;RP1=0, select bank1
  3350  0067  01E8               	clrf	(_sw)^080h
  3351                           	line	164
  3352                           ;main.c: 164: RC0=0;
  3353  0068  1283               	bcf	status, 5	;RP0=0, select bank0
  3354  0069  1303               	bcf	status, 6	;RP1=0, select bank0
  3355  006A  1007               	bcf	(56/8),(56)&7
  3356                           	line	165
  3357                           ;main.c: 165: if(RA2==1)
  3358  006B  1D05               	btfss	(42/8),(42)&7
  3359  006C  286E               	goto	u280_21
  3360  006D  286F               	goto	u280_20
  3361  006E                     u280_21:
  3362  006E  2880               	goto	i1l2887
  3363  006F                     u280_20:
  3364                           	line	167
  3365                           	
  3366  006F                     i1l2879:	
  3367                           ;main.c: 166: {
  3368                           ;main.c: 167: _delay(2000000/5);
  3369                           	opt asmopt_off
  3370  006F  3003               movlw  3
  3371  0070  00F7               movwf	((??_isr+0)+0+2),f
  3372  0071  3008               movlw	8
  3373  0072  00F6               movwf	((??_isr+0)+0+1),f
  3374  0073  3078               	movlw	120
  3375  0074  00F5               movwf	((??_isr+0)+0),f
  3376  0075                     u341_27:
  3377  0075  0BF5               	decfsz	((??_isr+0)+0),f
  3378  0076  2875               	goto	u341_27
  3379  0077  0BF6               	decfsz	((??_isr+0)+0+1),f
  3380  0078  2875               	goto	u341_27
  3381  0079  0BF7               	decfsz	((??_isr+0)+0+2),f
  3382  007A  2875               	goto	u341_27
  3383                           opt asmopt_on
  3384                           
  3385                           	line	168
  3386                           	
  3387  007B                     i1l2881:	
  3388                           ;main.c: 168: INTCONbits.INTF=0;
  3389  007B  108B               	bcf	(11),1	;volatile
  3390                           	line	169
  3391                           	
  3392  007C                     i1l2883:	
  3393                           ;main.c: 169: INTCONbits.GIE=1;
  3394  007C  178B               	bsf	(11),7	;volatile
  3395  007D  291F               	goto	i1l586
  3396                           	line	170
  3397                           	
  3398  007E                     i1l2885:	
  3399                           ;main.c: 170: return;
  3400  007E  291F               	goto	i1l586
  3401                           	line	171
  3402                           	
  3403  007F                     i1l585:	
  3404  007F  2880               	goto	i1l2887
  3405                           	line	172
  3406                           	
  3407  0080                     i1l584:	
  3408                           	line	173
  3409                           	
  3410  0080                     i1l2887:	
  3411                           ;main.c: 171: }
  3412                           ;main.c: 172: }
  3413                           ;main.c: 173: if(400000==count){
  3414  0080  3000               	movlw	0
  3415  0081  1283               	bcf	status, 5	;RP0=0, select bank0
  3416  0082  1303               	bcf	status, 6	;RP1=0, select bank0
  3417  0083  0623               	xorwf	(isr@count+3),w
  3418  0084  1D03               	skipz
  3419  0085  2890               	goto	u281_25
  3420  0086  3006               	movlw	06h
  3421  0087  0622               	xorwf	(isr@count+2),w
  3422  0088  1D03               	skipz
  3423  0089  2890               	goto	u281_25
  3424  008A  301A               	movlw	01Ah
  3425  008B  0621               	xorwf	(isr@count+1),w
  3426  008C  1D03               	skipz
  3427  008D  2890               	goto	u281_25
  3428  008E  3080               	movlw	080h
  3429  008F  0620               	xorwf	(isr@count),w
  3430  0090                     u281_25:
  3431  0090  1D03               	skipz
  3432  0091  2893               	goto	u281_21
  3433  0092  2894               	goto	u281_20
  3434  0093                     u281_21:
  3435  0093  28E3               	goto	i1l2929
  3436  0094                     u281_20:
  3437                           	line	174
  3438                           	
  3439  0094                     i1l2889:	
  3440                           ;main.c: 174: RC0=1;
  3441  0094  1407               	bsf	(56/8),(56)&7
  3442                           	line	175
  3443                           ;main.c: 175: RA0=0;
  3444  0095  1005               	bcf	(40/8),(40)&7
  3445                           	line	176
  3446                           	
  3447  0096                     i1l2891:	
  3448                           ;main.c: 176: INTCON=0x00;
  3449  0096  018B               	clrf	(11)	;volatile
  3450                           	line	177
  3451                           ;main.c: 177: TMR0=0x00;
  3452  0097  0181               	clrf	(1)	;volatile
  3453                           	line	178
  3454                           	
  3455  0098                     i1l2893:	
  3456                           ;main.c: 178: RCSTAbits.CREN=1;
  3457  0098  1617               	bsf	(23),4	;volatile
  3458                           	line	179
  3459                           	
  3460  0099                     i1l2895:	
  3461                           ;main.c: 179: TXSTAbits.TXEN=1;
  3462  0099  1696               	bsf	(22),5	;volatile
  3463                           	line	180
  3464                           	
  3465  009A                     i1l2897:	
  3466                           ;main.c: 180: RCSTAbits.SPEN=1;
  3467  009A  1797               	bsf	(23),7	;volatile
  3468                           	line	181
  3469                           	
  3470  009B                     i1l2899:	
  3471                           ;main.c: 181: _delay(2000000);
  3472                           	opt asmopt_off
  3473  009B  300B               movlw  11
  3474  009C  00F7               movwf	((??_isr+0)+0+2),f
  3475  009D  3026               movlw	38
  3476  009E  00F6               movwf	((??_isr+0)+0+1),f
  3477  009F  3066               	movlw	102
  3478  00A0  00F5               movwf	((??_isr+0)+0),f
  3479  00A1                     u342_27:
  3480  00A1  0BF5               	decfsz	((??_isr+0)+0),f
  3481  00A2  28A1               	goto	u342_27
  3482  00A3  0BF6               	decfsz	((??_isr+0)+0+1),f
  3483  00A4  28A1               	goto	u342_27
  3484  00A5  0BF7               	decfsz	((??_isr+0)+0+2),f
  3485  00A6  28A1               	goto	u342_27
  3486  00A7  28A8               	nop2
  3487                           opt asmopt_on
  3488                           
  3489                           	line	182
  3490                           	
  3491  00A8                     i1l2901:	
  3492                           ;main.c: 182: printf("Software revision: 0.23\n");
  3493  00A8  3023               	movlw	((STR_1-__stringbase))&0ffh
  3494  00A9  118A  25B6  118A   	fcall	_printf
  3495                           	line	183
  3496                           	
  3497  00AC                     i1l2903:	
  3498                           ;main.c: 183: printf("Resetting device! Please wait...\n");
  3499  00AC  3001               	movlw	((STR_2-__stringbase))&0ffh
  3500  00AD  118A  25B6  118A   	fcall	_printf
  3501                           	line	184
  3502                           	
  3503  00B0                     i1l2905:	
  3504                           ;main.c: 184: printf("AT+RESET");
  3505  00B0  3052               	movlw	((STR_3-__stringbase))&0ffh
  3506  00B1  118A  25B6  118A   	fcall	_printf
  3507                           	line	185
  3508                           	
  3509  00B4                     i1l2907:	
  3510                           ;main.c: 185: _delay(2000000);
  3511                           	opt asmopt_off
  3512  00B4  300B               movlw  11
  3513  00B5  00F7               movwf	((??_isr+0)+0+2),f
  3514  00B6  3026               movlw	38
  3515  00B7  00F6               movwf	((??_isr+0)+0+1),f
  3516  00B8  3066               	movlw	102
  3517  00B9  00F5               movwf	((??_isr+0)+0),f
  3518  00BA                     u343_27:
  3519  00BA  0BF5               	decfsz	((??_isr+0)+0),f
  3520  00BB  28BA               	goto	u343_27
  3521  00BC  0BF6               	decfsz	((??_isr+0)+0+1),f
  3522  00BD  28BA               	goto	u343_27
  3523  00BE  0BF7               	decfsz	((??_isr+0)+0+2),f
  3524  00BF  28BA               	goto	u343_27
  3525  00C0  28C1               	nop2
  3526                           opt asmopt_on
  3527                           
  3528                           	line	186
  3529                           	
  3530  00C1                     i1l2909:	
  3531                           ;main.c: 186: printf("AT+NAMEsocialanalyzer");
  3532  00C1  303C               	movlw	((STR_4-__stringbase))&0ffh
  3533  00C2  118A  25B6  118A   	fcall	_printf
  3534                           	line	187
  3535                           	
  3536  00C5                     i1l2911:	
  3537                           ;main.c: 187: _delay(2000000);
  3538                           	opt asmopt_off
  3539  00C5  300B               movlw  11
  3540  00C6  00F7               movwf	((??_isr+0)+0+2),f
  3541  00C7  3026               movlw	38
  3542  00C8  00F6               movwf	((??_isr+0)+0+1),f
  3543  00C9  3066               	movlw	102
  3544  00CA  00F5               movwf	((??_isr+0)+0),f
  3545  00CB                     u344_27:
  3546  00CB  0BF5               	decfsz	((??_isr+0)+0),f
  3547  00CC  28CB               	goto	u344_27
  3548  00CD  0BF6               	decfsz	((??_isr+0)+0+1),f
  3549  00CE  28CB               	goto	u344_27
  3550  00CF  0BF7               	decfsz	((??_isr+0)+0+2),f
  3551  00D0  28CB               	goto	u344_27
  3552  00D1  28D2               	nop2
  3553                           opt asmopt_on
  3554                           
  3555                           	line	188
  3556                           	
  3557  00D2                     i1l2913:	
  3558                           ;main.c: 188: sw=0;
  3559  00D2  1683               	bsf	status, 5	;RP0=1, select bank1
  3560  00D3  1303               	bcf	status, 6	;RP1=0, select bank1
  3561  00D4  01E8               	clrf	(_sw)^080h
  3562                           	line	189
  3563                           	
  3564  00D5                     i1l2915:	
  3565                           ;main.c: 189: on=0;
  3566  00D5  107C               	bcf	(_on/8),(_on)&7
  3567                           	line	190
  3568                           	
  3569  00D6                     i1l2917:	
  3570                           ;main.c: 190: heat=0;
  3571  00D6  1283               	bcf	status, 5	;RP0=0, select bank0
  3572  00D7  1303               	bcf	status, 6	;RP1=0, select bank0
  3573  00D8  01BF               	clrf	(_heat)
  3574                           	line	191
  3575                           	
  3576  00D9                     i1l2919:	
  3577                           ;main.c: 191: TRISA=0x00;
  3578  00D9  1683               	bsf	status, 5	;RP0=1, select bank1
  3579  00DA  1303               	bcf	status, 6	;RP1=0, select bank1
  3580  00DB  0185               	clrf	(133)^080h	;volatile
  3581                           	line	192
  3582                           	
  3583  00DC                     i1l2921:	
  3584                           ;main.c: 192: TRISC=0x00;
  3585  00DC  0187               	clrf	(135)^080h	;volatile
  3586                           	line	193
  3587                           	
  3588  00DD                     i1l2923:	
  3589                           ;main.c: 193: PORTA=0x00;
  3590  00DD  1283               	bcf	status, 5	;RP0=0, select bank0
  3591  00DE  1303               	bcf	status, 6	;RP1=0, select bank0
  3592  00DF  0185               	clrf	(5)	;volatile
  3593                           	line	194
  3594                           	
  3595  00E0                     i1l2925:	
  3596                           ;main.c: 194: PORTC=0x00;
  3597  00E0  0187               	clrf	(7)	;volatile
  3598                           	line	196
  3599                           	
  3600  00E1                     i1l2927:	
  3601                           # 196 "E:\Dropbox\socialAnalizer\Firmware\V0.23s\main.c"
  3602  00E1  2800                   GOTO 0x0000 ;#
  3603                           psect	text347
  3604  00E2  28E3               	goto	i1l2929
  3605                           	line	198
  3606                           	
  3607  00E3                     i1l587:	
  3608                           	line	160
  3609                           	
  3610  00E3                     i1l2929:	
  3611  00E3  3001               	movlw	01h
  3612  00E4  1283               	bcf	status, 5	;RP0=0, select bank0
  3613  00E5  1303               	bcf	status, 6	;RP1=0, select bank0
  3614  00E6  07A0               	addwf	(isr@count),f
  3615  00E7  3000               	movlw	0
  3616  00E8  1803               	skipnc
  3617  00E9  3001               movlw 1
  3618  00EA  07A1               	addwf	(isr@count+1),f
  3619  00EB  3000               	movlw	0
  3620  00EC  1803               	skipnc
  3621  00ED  3001               movlw 1
  3622  00EE  07A2               	addwf	(isr@count+2),f
  3623  00EF  3000               	movlw	0
  3624  00F0  1803               	skipnc
  3625  00F1  3001               movlw 1
  3626  00F2  07A3               	addwf	(isr@count+3),f
  3627  00F3  28F4               	goto	i1l2931
  3628                           	
  3629  00F4                     i1l582:	
  3630                           	
  3631  00F4                     i1l2931:	
  3632  00F4  1D05               	btfss	(42/8),(42)&7
  3633  00F5  28F7               	goto	u282_21
  3634  00F6  28F8               	goto	u282_20
  3635  00F7                     u282_21:
  3636  00F7  2853               	goto	i1l2875
  3637  00F8                     u282_20:
  3638                           	
  3639  00F8                     i1l2933:	
  3640  00F8  3000               	movlw	0
  3641  00F9  0223               	subwf	(isr@count+3),w
  3642  00FA  1D03               	skipz
  3643  00FB  2906               	goto	u283_25
  3644  00FC  3000               	movlw	0
  3645  00FD  0222               	subwf	(isr@count+2),w
  3646  00FE  1D03               	skipz
  3647  00FF  2906               	goto	u283_25
  3648  0100  309C               	movlw	09Ch
  3649  0101  0221               	subwf	(isr@count+1),w
  3650  0102  1D03               	skipz
  3651  0103  2906               	goto	u283_25
  3652  0104  3040               	movlw	040h
  3653  0105  0220               	subwf	(isr@count),w
  3654  0106                     u283_25:
  3655  0106  1803               	skipnc
  3656  0107  2909               	goto	u283_21
  3657  0108  290A               	goto	u283_20
  3658  0109                     u283_21:
  3659  0109  2853               	goto	i1l2875
  3660  010A                     u283_20:
  3661                           	
  3662  010A                     i1l588:	
  3663                           	line	200
  3664                           ;main.c: 198: }
  3665                           ;main.c: 199: }
  3666                           ;main.c: 200: if(on==0)
  3667  010A  187C               	btfsc	(_on/8),(_on)&7
  3668  010B  290D               	goto	u284_21
  3669  010C  290E               	goto	u284_20
  3670  010D                     u284_21:
  3671  010D  2915               	goto	i1l2937
  3672  010E                     u284_20:
  3673                           	line	201
  3674                           	
  3675  010E                     i1l2935:	
  3676                           ;main.c: 201: sw=2;
  3677  010E  3002               	movlw	(02h)
  3678  010F  00F5               	movwf	(??_isr+0)+0
  3679  0110  0875               	movf	(??_isr+0)+0,w
  3680  0111  1683               	bsf	status, 5	;RP0=1, select bank1
  3681  0112  1303               	bcf	status, 6	;RP1=0, select bank1
  3682  0113  00E8               	movwf	(_sw)^080h
  3683  0114  291D               	goto	i1l2939
  3684                           	line	202
  3685                           	
  3686  0115                     i1l589:	
  3687                           	line	203
  3688                           	
  3689  0115                     i1l2937:	
  3690                           ;main.c: 202: else
  3691                           ;main.c: 203: sw=1;
  3692  0115  1683               	bsf	status, 5	;RP0=1, select bank1
  3693  0116  1303               	bcf	status, 6	;RP1=0, select bank1
  3694  0117  01E8               	clrf	(_sw)^080h
  3695  0118  1403               	bsf	status,0
  3696  0119  0DE8               	rlf	(_sw)^080h,f
  3697  011A  291D               	goto	i1l2939
  3698                           	
  3699  011B                     i1l590:	
  3700  011B  291D               	goto	i1l2939
  3701                           	line	204
  3702                           	
  3703  011C                     i1l581:	
  3704  011C  291D               	goto	i1l2939
  3705                           	line	205
  3706                           	
  3707  011D                     i1l580:	
  3708                           	
  3709  011D                     i1l2939:	
  3710                           ;main.c: 204: }
  3711                           ;main.c: 205: INTCONbits.GIE=1;
  3712  011D  178B               	bsf	(11),7	;volatile
  3713                           	line	206
  3714                           	
  3715  011E                     i1l2941:	
  3716                           ;main.c: 206: INTCONbits.PEIE=1;
  3717  011E  170B               	bsf	(11),6	;volatile
  3718                           	line	207
  3719                           	
  3720  011F                     i1l586:	
  3721  011F  087B               	movf	(??_isr+6),w
  3722  0120  1283               	bcf	status, 5	;RP0=0, select bank0
  3723  0121  1303               	bcf	status, 6	;RP1=0, select bank0
  3724  0122  00FF               	movwf	btemp+1
  3725  0123  087A               	movf	(??_isr+5),w
  3726  0124  008A               	movwf	pclath
  3727  0125  0879               	movf	(??_isr+4),w
  3728  0126  0084               	movwf	fsr0
  3729  0127  0E78               	swapf	(??_isr+3)^0FFFFFF80h,w
  3730  0128  0083               	movwf	status
  3731  0129  0EFE               	swapf	saved_w,f
  3732  012A  0E7E               	swapf	saved_w,w
  3733  012B  0009               	retfie
  3734                           	opt stack 0
  3735                           GLOBAL	__end_of_isr
  3736  012C                     	__end_of_isr:
  3737 ;; =============== function _isr ends ============
  3738                           
  3739                           	signat	_isr,88
  3740                           	global	_printf
  3741                           psect	text348,local,class=CODE,delta=2
  3742                           global __ptext348
  3743  05B6                     __ptext348:
  3744                           
  3745 ;; *************** function _printf *****************
  3746 ;; Defined at:
  3747 ;;		line 461 in file "C:\Program Files (x86)\HI-TECH Software\PICC\9.83\lib\doprnt.c"
  3748 ;; Parameters:    Size  Location     Type
  3749 ;;  f               1    wreg     PTR const unsigned char 
  3750 ;;		 -> STR_4(22), STR_3(9), STR_2(34), STR_1(25), 
  3751 ;; Auto vars:     Size  Location     Type
  3752 ;;  f               1    3[COMMON] PTR const unsigned char 
  3753 ;;		 -> STR_4(22), STR_3(9), STR_2(34), STR_1(25), 
  3754 ;;  _val            4    0        struct .
  3755 ;;  c               1    4[COMMON] char 
  3756 ;;  ap              1    2[COMMON] PTR void [1]
  3757 ;;		 -> ?_printf(2), 
  3758 ;;  flag            1    0        unsigned char 
  3759 ;;  prec            1    0        char 
  3760 ;; Return value:  Size  Location     Type
  3761 ;;                  2  544[COMMON] int 
  3762 ;; Registers used:
  3763 ;;		wreg, fsr0l, fsr0h, status,2, status,0, pclath, cstack
  3764 ;; Tracked objects:
  3765 ;;		On entry : 0/0
  3766 ;;		On exit  : 0/0
  3767 ;;		Unchanged: 0/0
  3768 ;; Data sizes:     COMMON   BANK0   BANK1   BANK2
  3769 ;;      Params:         0       0       0       0
  3770 ;;      Locals:         3       0       0       0
  3771 ;;      Temps:          1       0       0       0
  3772 ;;      Totals:         4       0       0       0
  3773 ;;Total ram usage:        4 bytes
  3774 ;; Hardware stack levels used:    1
  3775 ;; Hardware stack levels required when called:    1
  3776 ;; This function calls:
  3777 ;;		_putch
  3778 ;; This function is called by:
  3779 ;;		_isr
  3780 ;; This function uses a non-reentrant model
  3781 ;;
  3782                           psect	text348
  3783                           	file	"C:\Program Files (x86)\HI-TECH Software\PICC\9.83\sources\doprnt.c"
  3784                           	line	461
  3785                           	global	__size_of_printf
  3786  001D                     	__size_of_printf	equ	__end_of_printf-_printf
  3787                           	
  3788  05B6                     _printf:	
  3789                           	opt	stack 2
  3790                           ; Regs used in _printf: [wreg-fsr0h+status,2+status,0+pclath+cstack]
  3791                           ;printf@f stored from wreg
  3792                           	line	537
  3793  05B6  00F3               	movwf	(printf@f)
  3794                           	
  3795  05B7                     i1l2943:	
  3796  05B7  3070               	movlw	(?_printf)&0ffh
  3797  05B8  00F1               	movwf	(??_printf+0)+0
  3798  05B9  0871               	movf	(??_printf+0)+0,w
  3799  05BA  00F2               	movwf	(printf@ap)
  3800                           	line	540
  3801  05BB  2DC1               	goto	i1l2947
  3802                           	
  3803  05BC                     i1l660:	
  3804                           	line	545
  3805                           	
  3806  05BC                     i1l2945:	
  3807  05BC  0874               	movf	(printf@c),w
  3808  05BD  118A  25EF  118A   	fcall	_putch
  3809                           	line	546
  3810  05C0  2DC1               	goto	i1l2947
  3811                           	line	1525
  3812                           	
  3813  05C1                     i1l659:	
  3814                           	line	540
  3815                           	
  3816  05C1                     i1l2947:	
  3817  05C1  3001               	movlw	01h
  3818  05C2  07F3               	addwf	(printf@f),f
  3819  05C3  30FF               	movlw	-01h
  3820  05C4  0773               	addwf	(printf@f),w
  3821  05C5  0084               	movwf	fsr0
  3822  05C6  118A  2400  118A   	fcall	stringdir
  3823  05C9  00F1               	movwf	(??_printf+0)+0
  3824  05CA  0871               	movf	(??_printf+0)+0,w
  3825  05CB  00F4               	movwf	(printf@c)
  3826  05CC  08F4               	movf	((printf@c)),f
  3827  05CD  1D03               	skipz
  3828  05CE  2DD0               	goto	u285_21
  3829  05CF  2DD1               	goto	u285_20
  3830  05D0                     u285_21:
  3831  05D0  2DBC               	goto	i1l2945
  3832  05D1                     u285_20:
  3833  05D1  2DD2               	goto	i1l662
  3834                           	
  3835  05D2                     i1l661:	
  3836                           	line	1533
  3837                           ;	Return value of _printf is never used
  3838                           	
  3839  05D2                     i1l662:	
  3840  05D2  0008               	return
  3841                           	opt stack 0
  3842                           GLOBAL	__end_of_printf
  3843  05D3                     	__end_of_printf:
  3844 ;; =============== function _printf ends ============
  3845                           
  3846                           	signat	_printf,602
  3847                           	global	_putch
  3848                           psect	text349,local,class=CODE,delta=2
  3849                           global __ptext349
  3850  05EF                     __ptext349:
  3851                           
  3852 ;; *************** function _putch *****************
  3853 ;; Defined at:
  3854 ;;		line 335 in file "E:\Dropbox\socialAnalizer\Firmware\V0.23s\main.c"
  3855 ;; Parameters:    Size  Location     Type
  3856 ;;  byte            1    wreg     unsigned char 
  3857 ;; Auto vars:     Size  Location     Type
  3858 ;;  byte            1    0[COMMON] unsigned char 
  3859 ;; Return value:  Size  Location     Type
  3860 ;;		None               void
  3861 ;; Registers used:
  3862 ;;		wreg
  3863 ;; Tracked objects:
  3864 ;;		On entry : 0/0
  3865 ;;		On exit  : 0/0
  3866 ;;		Unchanged: 0/0
  3867 ;; Data sizes:     COMMON   BANK0   BANK1   BANK2
  3868 ;;      Params:         0       0       0       0
  3869 ;;      Locals:         1       0       0       0
  3870 ;;      Temps:          0       0       0       0
  3871 ;;      Totals:         1       0       0       0
  3872 ;;Total ram usage:        1 bytes
  3873 ;; Hardware stack levels used:    1
  3874 ;; This function calls:
  3875 ;;		Nothing
  3876 ;; This function is called by:
  3877 ;;		_printf
  3878 ;; This function uses a non-reentrant model
  3879 ;;
  3880                           psect	text349
  3881                           	file	"E:\Dropbox\socialAnalizer\Firmware\V0.23s\main.c"
  3882                           	line	335
  3883                           	global	__size_of_putch
  3884  000C                     	__size_of_putch	equ	__end_of_putch-_putch
  3885                           	
  3886  05EF                     _putch:	
  3887                           	opt	stack 2
  3888                           ; Regs used in _putch: [wreg]
  3889                           ;putch@byte stored from wreg
  3890  05EF  00F0               	movwf	(putch@byte)
  3891                           	line	336
  3892                           	
  3893  05F0                     i1l2963:	
  3894                           ;main.c: 336: while(!TXIF)
  3895  05F0  2DF1               	goto	i1l637
  3896                           	
  3897  05F1                     i1l638:	
  3898                           	line	337
  3899                           ;main.c: 337: continue;
  3900                           	
  3901  05F1                     i1l637:	
  3902                           	line	336
  3903  05F1  1283               	bcf	status, 5	;RP0=0, select bank0
  3904  05F2  1303               	bcf	status, 6	;RP1=0, select bank0
  3905  05F3  1C8C               	btfss	(97/8),(97)&7
  3906  05F4  2DF6               	goto	u288_21
  3907  05F5  2DF7               	goto	u288_20
  3908  05F6                     u288_21:
  3909  05F6  2DF1               	goto	i1l637
  3910  05F7                     u288_20:
  3911  05F7  2DF8               	goto	i1l2965
  3912                           	
  3913  05F8                     i1l639:	
  3914                           	line	338
  3915                           	
  3916  05F8                     i1l2965:	
  3917                           ;main.c: 338: TXREG = byte;
  3918  05F8  0870               	movf	(putch@byte),w
  3919  05F9  0095               	movwf	(21)	;volatile
  3920                           	line	339
  3921                           	
  3922  05FA                     i1l640:	
  3923  05FA  0008               	return
  3924                           	opt stack 0
  3925                           GLOBAL	__end_of_putch
  3926  05FB                     	__end_of_putch:
  3927 ;; =============== function _putch ends ============
  3928                           
  3929                           	signat	_putch,4216
  3930                           psect	text350,local,class=CODE,delta=2
  3931                           global __ptext350
  3932  0000                     __ptext350:
  3933                           	global	btemp
  3934  007E                     	btemp set 07Eh
  3935                           
  3936                           	DABS	1,126,2	;btemp
  3937                           	global	wtemp0
  3938  007E                     	wtemp0 set btemp


HI-TECH Software PICC Macro Assembler V9.83 build 10920 
Symbol Table                                                                                   Tue Sep 11 19:51:55 2012

                   pc 0002                    _RD 04E0                    _WR 04E1                    _on 03E0  
                  _sw 00E8                    fsr 0004                   _ADC 0530                   l600 032F  
                 l601 0352                   l602 0374                   l610 0154                   l603 03DA  
                 l611 0170                   l604 03CA                   l620 0229                   l612 0161  
                 l605 03F8                   l621 022A                   l613 016F                   l630 05AD  
                 l614 016E                   l631 059A                   l615 01E7                   l632 05A6  
                 l624 054C                   l616 01B7                   l608 0147                   l560 0591  
                 l633 05B5                   l625 054C                   l617 01E6                   l609 0171  
                 l561 0592                   l634 05B2                   l626 0551                   l618 022A  
                 l562 0592                   l571 04D1                   l627 0565                   l619 01FA  
                 l555 056A                   l572 04ED                   l556 0576                   l565 052F  
                 l573 04F3                   l557 0582                   l558 0581                   l559 0590  
                 l568 05EE                   l593 0240                   l594 026A                   l595 0277  
                 l596 02AE                   l597 0318                   _GIE 005F                   _RA0 0028  
                 _RA2 002A                   _RC0 0038                   _RA4 002C                   _RA5 002D  
                 _RC3 003B                   _isr 0013                   fsr0 0004                   indf 0000  
                ?_ADC 0024                  l1210 04AF                  l1203 04A8                  l1204 047A  
                l1205 046E                  l1206 047F                  l1207 0480                  l1208 0499  
                l1209 04A7                  l3001 0511                  l3011 0518                  l3003 0514  
                l3013 051B                  l3005 0515                  l3021 05D3                  l3101 0342  
                l3015 0528                  l3007 0516                  l3031 05E9                  l3023 05DE  
                l3111 0373                  l3103 0348                  l3017 052A                  l3009 0517  
                l3033 05EA                  l3025 05E2                  l3041 04B0                  l3121 03CA  
                l3113 0374                  l3105 0352                  l3201 0254                  l3019 052E  
                l3035 05EB                  l3027 05E3                  l3051 04BD                  l3043 04B6  
                l3123 03D0                  l3115 0393                  l3107 0367                  l3131 012C  
                l3211 0276                  l3203 0258                  l3037 05EC                  l3029 05E7  
                l3061 04C3                  l3053 04BE                  l3045 04B9                  l3117 03B1  
                l3125 03DA                  l3109 0369                  l3141 014B                  l3133 012F  
                l3221 029C                  l3213 027B                  l3205 0260                  l3039 05EE  
                l3071 04D1                  l3063 04C4                  l3055 04BF                  l3047 04BB  
                l3127 03F1                  l3119 03B7                  l3151 0169                  l3143 014F  
                l3135 013B                  l3231 02DD                  l3223 02A4                  l3215 028E  
                l3207 026A                  l3081 04F2                  l3073 04E2                  l3065 04C8  
                l3057 04C0                  l3049 04BC                  l3129 03F8                  l3161 0197  
                l3145 0158                  l3153 0171                  l3137 013F                  l3241 030F  
                l3233 02E5                  l3217 028F                  l3225 02AE                  l3209 026C  
                l3075 04E6                  l3067 04C9                  l3059 04C1                  l3091 0565  
                l3083 0533                  l3171 01B8                  l3163 019F                  l3155 0175  
                l3147 015C                  l3139 0143                  l3243 0318                  l3235 02FE  
                l3227 02C0                  l3219 0298                  l3251 0576                  l3069 04D0  
                l3077 04ED                  l3085 053F                  l3093 031C                  l3181 01F9  
                l3173 01C5                  l3165 01AA                  l3157 017C                  l3149 0165  
                l3237 0306                  l3229 02C4                  l3253 057D                  l3245 0566  
                l3079 04F1                  l3087 0548                  l3095 0324                  l3183 01FB  
                l3167 01AC                  l3175 01E7                  l3159 0184                  l3239 030C  
                l3191 0235                  l3255 0582                  l3247 056A                  l3089 0551  
                l3097 032E                  l3185 0207                  l3177 01ED                  l3169 01B6  
                l3193 023F                  l3257 0586                  l3249 0572                  l3099 032F  
                l3179 01EF                  l3195 0244                  l3187 022B                  l3259 058C  
                l3197 0248                  l3189 0231                  l3199 0249                  l2951 059A  
                l2961 05B5                  l2953 05A5                  l2955 05A6                  l2971 046A  
                l2957 05AD                  l2949 0597                  l2981 0491                  l2973 046E  
                l2959 05B2                  l2991 04AF                  l2983 0497                  l2975 0475  
                l2967 0460                  l2985 0499                  l2977 047A                  l2969 0464  
                l2993 04F4                  l2987 04A0                  l2979 0480                  l2995 050C  
                l2989 04A8                  l2997 050D                  l2999 050F                  ?_isr 0070  
                STR_1 0428                  STR_2 0406                  STR_3 0457                  STR_4 0441  
                u3000 032D                  u3001 032C                  u3010 0351                  u3011 0350  
                u3020 0372                  u3100 0158                  u3021 0371                  u3101 0157  
                u3030 0393                  u3110 015C                  u3031 0392                  u3111 015B  
                u3040 03B1                  u3200 0228                  u3120 0165                  u3041 03B0  
                u3201 0227                  u3121 0164                  u3050 03D9                  u3130 0169  
                u3210 023E                  u3051 03D8                  u3035 038F                  u3131 0168  
                u3211 023D                  u3060 013F                  u3220 0269                  u3300 058C  
                u3045 03AD                  u3061 013E                  u3221 0268                  u3150 01AA  
                u3070 0143                  u3230 0275                  u3151 01A9                  u3071 0142  
                u3231 0274                  u3160 01B5                  u3080 014B                  u3240 02AD  
                u3161 01B4                  u3145 018B                  u3081 014A                  u3241 02AC  
                u3170 01E5                  u3090 014F                  u3171 01E4                  u3091 014E  
                u3180 01ED                  u3181 01EC                  u3317 024F                  u3190 01F8  
                u3270 0572                  u3191 01F7                  u3255 02D1                  u3327 0293  
                u3271 0571                  u3280 057D                  u3337 01BE                  u3265 02F2  
                u3281 057C                  u3290 0586                  u3347 01CE                  u3291 0585  
                u3357 0201                  u2910 047E                  u2911 047D                  u3367 0210  
                u2905 046F                  u3377 0543                  u2930 0491                  u2931 0490  
                u3387 04D7                  u2860 05A4                  u2861 05A3                  u2925 0481  
                u3397 0521                  u2870 05B1                  u2950 04A6                  u2871 05B0  
                u2951 04A5                  u2935 048D                  u2960 04CF                  u2865 05A0  
                u2945 049A                  u2961 04CE                  u2890 046A                  u2970 04EC  
                u2891 0469                  u2971 04EB                  u2990 0550                  u2991 054F  
                u2985 0536                  _TMR0 0001                  _WREN 04E2                  _TXIF 0061  
                _heat 003F                  _main 0566                  _send 0594                  _wake 04B0  
                btemp 007E                  start 0011                 ??_ADC 0026                 ??_isr 0075  
               ?_main 0070                 _EEADR 009B                 ?_send 0070                 _EEDAT 009A  
               ?_wake 0070                 _CARRY 0018                 _ANSEL 0091       __end_of___lwdiv 04B0  
               i1l640 05FA                 i1l660 05BC                 i1l580 011D                 i1l637 05F1  
               i1l661 05D2                 i1l581 011C                 i1l638 05F1                 i1l662 05D2  
               i1l590 011B                 i1l582 00F4                 i1l639 05F8                 i1l583 0053  
               i1l584 0080                 i1l576 0036                 i1l585 007F                 i1l577 0027  
               i1l586 011F                 i1l578 0029                 i1l659 05C1                 i1l587 00E3  
               i1l579 0035                 i1l588 010A                 i1l589 0115                 _RCSTA 0017  
               _SPBRG 0013                 _PORTA 0005                 _PORTC 0007                 _TRISA 0085  
               _TRISC 0087                 _TXREG 0015                 _TXSTA 0016       __end_of_battery 022B  
     __end_of_initPIC 0530       __end_of_measure 0319                 _sleep 05D3                 _putch 05EF  
      __pbitbssCOMMON 03E0                 pclath 000A                 send@i 0025                 wake@i 0027  
               status 0003                 wtemp0 007E          __end_of_main 0594          __end_of_send 05B6  
        __end_of_wake 04F4                ??_main 003F                ??_send 0024                ??_wake 0024  
              _ADCON0 001F                _ADCON1 009F                _ADRESH 001E                _ADRESL 009E  
              _EEDATA 009A                _EECON1 009C                _EECON2 009D                ?_sleep 0070  
              _CMCON0 0019                ?_putch 0070                i1l2901 00A8                i1l2911 00C5  
              i1l2903 00AC                i1l2921 00DC                i1l2913 00D2                i1l2905 00B0  
              i1l2923 00DD                i1l2915 00D5                i1l2907 00B4                i1l2931 00F4  
              i1l2941 011E                i1l2933 00F8                i1l2925 00E0                i1l2917 00D6  
              i1l2909 00C1                i1l2861 001F                i1l2853 0013                i1l2943 05B7  
              i1l2935 010E                i1l2927 00E1                i1l2919 00D9                i1l2871 003A  
              i1l2863 0025                i1l2855 0019                i1l2945 05BC                i1l2937 0115  
              i1l2929 00E3                i1l2881 007B                i1l2873 003C                i1l2865 0029  
              i1l2857 001D                i1l2963 05F0                i1l2947 05C1                i1l2891 0096  
              i1l2883 007C                i1l2875 0053                i1l2939 011D                i1l2867 002D  
              i1l2859 001E                i1l2965 05F8                i1l2893 0098                i1l2885 007E  
              i1l2877 0065                i1l2869 0033                i1l2895 0099                i1l2879 006F  
              i1l2887 0080                i1l2897 009A                i1l2889 0094                i1l2899 009B  
              _INTCON 000B                u340_27 0042                u341_27 0075                u342_27 00A1  
              u343_27 00BA                u280_20 006F                u280_21 006E                u344_27 00CB  
              u281_20 0094                u281_21 0093                u281_25 0090                u282_20 00F8  
              u274_20 0019                u282_21 00F7                u274_21 0018                u283_20 010A  
              u275_20 001D                u283_21 0109                u275_21 001C                u283_25 0106  
              u284_20 010E                u276_20 0025                u284_21 010D                u276_21 0024  
              u285_20 05D1                u277_20 0033                u285_21 05D0                u277_21 0032  
              u278_20 003A                u278_21 0039                u279_20 0065                u279_21 0064  
              u279_25 0061                u288_20 05F7                u288_21 05F6                _OSCCON 008F  
           ??___lwdiv 0028             ??_battery 002B                _printf 05B6             ??_initPIC 0024  
           ??_measure 003D                saved_w 007E         promilage@res1 0038         promilage@res2 0036  
      __pcstackCOMMON 0070         __end_of_sleep 05EF         __end_of_putch 05FB               ??_sleep 0024  
          ADC@channel 002A               ??_putch 0070            __pbssBANK0 003F            __pbssBANK1 00E8  
          __pmaintext 0566            __pintentry 0004               _BAUDCTL 0011               ?_printf 0070  
  __size_of_promilage 00E0               ___lwdiv 0460               _battery 012C       __size_of_printf 001D  
        __size_of_ADC 0036               _initPIC 04F4               _measure 022B          __size_of_isr 0119  
end_of_initialization 0601             _RCSTAbits 0017               printf@c 0074               printf@f 0073  
   __end_of_promilage 03F9             _TXSTAbits 0016        __end_of_printf 05D3   start_initialization 05FB  
         __end_of_ADC 0566           __end_of_isr 012C              ??_printf 0071         __pcstackBANK0 0020  
       __pcstackBANK1 00A0      ___lwdiv@dividend 0026             __ptext340 0319             __ptext341 0530  
           __ptext350 0000             __ptext342 04B0             __ptext343 05D3             __ptext344 04F4  
           __ptext345 0460             __ptext337 0000             __ptext346 0594             __ptext338 022B  
           __ptext347 0013             __ptext339 012C             __ptext348 05B6             __ptext349 05EF  
            ?___lwdiv 0024              ?_battery 0070             __pstrings 0400              ?_initPIC 0070  
            ?_measure 0070         measure@result 00E4      ___lwdiv@quotient 0029        __size_of_sleep 001C  
      __size_of_putch 000C     interrupt_function 0004             _promilage 0319            _ADCON0bits 001F  
         __stringbase 0405              _WPUAbits 0095            promilage@c 0034            promilage@i 003B  
          promilage@r 003A            _EECON1bits 009C      __size_of___lwdiv 0050            ?_promilage 002C  
    __size_of_battery 00FF      __size_of_initPIC 003C      __size_of_measure 00EE       ___lwdiv@divisor 0024  
     ___lwdiv@counter 002B              _heat_ref 0040         __size_of_main 002E         __size_of_send 0022  
       __size_of_wake 0044              battery@r 002F              battery@t 002E             putch@byte 0070  
          _INTCONbits 000B              measure@i 00E6              measure@r 00A0              isr@count 0020  
            intlevel1 0000              send@data 0024             stringcode 0400              printf@ap 0072  
         ??_promilage 002E            _OPTION_REG 0081              stringdir 0400              stringtab 0400  
